(lp0
F-4.981671126842499
aF-2.3084830297231673
aF-1.690022178888321
aF-1.430682162463665
aF-1.3029621683359147
aF-1.2460407571792602
aF-1.1156428813934327
aF-1.2551558891534804
aF-0.9173169378936291
aF-0.7670111587047577
aF-1.3828589109182359
aF-1.4248233457803727
aF-1.0904953818321228
aF-0.9495667914152145
aF-1.1316051065325736
aF-1.0124930703043937
aF-1.066500844359398
aF-1.203472810268402
aF-1.3936650085449218
aF-1.2149620176553726
aF-0.9650107666254043
aF-1.2089099433422088
aF-0.5008720531463623
aF-0.7528797198534012
aF-0.8909103217720985
aF-0.709483756661415
aF-0.8131998075246811
aF-0.7185599112510681
aF-0.6374610711932183
aF-0.8465260707139969
aF-0.5677988364696502
aF-0.6872186374664306
aF-0.5882343069911004
aF-0.4939881991147995
aF-0.8338734981417656
aF-0.6886556898355484
aF-1.0374361493587494
aF-0.5760846166610718
aF-0.5175894995927811
aF-0.6807193516492843
aF-0.3847635976076126
aF-0.3887897231578827
aF-0.3826062021255493
aF-0.3969842804670334
aF-0.472064511179924
aF-0.3786925390958786
aF-0.34863705706596376
aF-0.29321908521652224
aF-0.21634852820634842
aF-0.2401742547750473
aF-0.24452239751815796
aF-0.1951822568178177
aF-0.1343860993385315
aF-0.24697606045007706
aF-0.08869868874549866
aF-0.14351742857694627
aF-0.23610418152809143
aF0.046471195459365844
aF-0.47234296786785124
aF-0.1824813666343689
aF-0.16918156623840333
aF0.02987405264377594
aF-0.1852747969031334
aF-0.11029918432235718
aF-0.21395179748535156
aF0.28050551611185076
aF-0.04670613586902619
aF-0.19340023756027222
aF0.0484945170879364
aF0.061250844955444333
aF0.04994968390464783
aF0.19069231832027436
aF-0.1015222030878067
aF0.3030214148759842
aF0.19640848690271379
aF0.0351541690826416
aF0.14657110917568206
aF0.04522153091430664
aF0.1401126821041107
aF0.23183313488960267
aF-0.08783301758766174
aF0.16786055022478102
aF0.5401466456651688
aF0.5611229970455169
aF0.42426021230220795
aF0.09144383513927459
aF0.40550079143047335
aF0.25810200774669645
aF0.2192357585132122
aF0.2799098056554794
aF0.03366145211458206
aF0.41660749793052676
aF0.32364947605133054
aF0.2858347532749176
aF0.11272415566444396
aF0.3260709015130997
aF0.3481845428943634
aF0.2517654300928116
aF0.3965561040639877
aF0.41065639865398407
aF0.29741772878170014
aF0.18178223061561585
aF0.4706152746677399
aF0.39512604546546937
aF0.25717868375778197
aF0.4259186614751816
aF0.5598261051177978
aF0.294416961312294
aF0.2524990693330765
aF0.47070868945121763
aF0.3705977636575699
aF0.42257358705997466
aF0.3398272956609726
aF0.48851112818717957
aF0.45528692376613616
aF0.3899599825143814
aF0.43268115746974944
aF0.4378455665707588
aF0.565876827955246
aF0.405960506439209
aF0.4131019752025604
aF0.5345303447246551
aF0.6472602862119675
aF0.5570064953565598
aF0.4891314378976822
aF0.5869305680990219
aF0.40645388221740725
aF0.6790759807825089
aF0.45616407132148745
aF0.4563447860479355
aF0.506098587691784
aF0.5422798409461975
aF0.5054329868555069
aF0.5098921248912811
aF0.4184975037574768
aF0.4643635845184326
aF0.4580216430425644
aF0.6048178243637085
aF0.48465197014808653
aF0.5248758518695831
aF0.6855523446798325
aF0.663384977132082
aF0.3230758006572723
aF0.49035013353824614
aF0.45807900428771975
aF0.2847873837947845
aF0.07012783491611481
aF0.4513685737475753
aF0.5411621646881104
aF0.5007723281383515
aF0.4814318627119064
aF0.6108848237991333
aF0.5755646002292633
aF0.36258590829372406
aF0.49908799958229066
aF0.49258569872379304
aF0.5056221691370011
aF0.6448023713827133
aF0.4796465945243835
aF0.5142691386938095
aF0.4051383023262024
aF0.5506257139444352
aF0.06004842972755432
aF0.3451816973686218
aF0.3482277575135231
aF0.5888788433074951
aF0.3812191969156265
aF0.3844817390441895
aF0.10898124122619629
aF0.3376215065717697
aF0.5043450374603271
aF0.34943384206295014
aF0.24058741867542266
aF0.36425973749160767
aF0.4679202491044998
aF0.4609168785810471
aF0.5214197502136231
aF0.6050074739456177
aF0.38993794775009155
aF0.18783214128017425
aF0.4498142192363739
aF0.37956526029109955
aF0.36130620777606964
aF0.4598098220825195
aF0.4475805804729462
aF0.3282102606296539
aF0.3694760193824768
aF0.030688769102096558
aF0.3297738537788391
aF0.49944639521837236
aF0.45285762667655943
aF0.5212852865457535
aF0.04914645195007324
aF-0.10601301407814026
aF0.2579894587993622
aF0.3845874031186104
aF0.664415209710598
aF0.3873609758615494
aF0.19407231307029724
aF0.2822069422006607
aF0.4038875379562378
aF0.5046548608541489
aF0.37897782588005063
aF0.10839217698574066
aF0.33446485543251037
aF0.4293376420736313
aF0.2666739866733551
aF0.36641564798355103
aF0.1555402050614357
aF0.14682566773891448
aF0.2755659370422363
aF0.20901099503040313
aF0.2965173313617706
aF0.3631106414794922
aF0.19741447311639787
aF0.3690279358625412
aF0.42225839710235596
aF0.5269093263149262
aF0.5286624295711517
aF0.4668173880577087
aF0.30560840654373167
aF0.28496893537044526
aF0.3076410502195358
aF0.3293545172214508
aF0.2229509299993515
aF0.2811616449356079
aF0.3091986976861954
aF0.21554736018180848
aF0.4198103666305542
aF0.380568018913269
aF0.36950503039360044
aF0.5476284230947495
aF0.36802096939086915
aF0.2868491666316986
aF0.15770733296871187
aF0.4257049156427383
aF0.5405439087152482
aF0.40622999584674835
aF0.36605215442180633
aF0.4459852955341339
aF0.21498740839958191
aF0.30799813103675844
aF0.5916123161315918
aF0.16490007174015045
aF0.5770954650640487
aF0.36904991471767423
aF0.46194852733612063
aF0.3057506047487259
aF0.3371425507068634
aF0.3795772204399109
aF0.36703806233406067
aF0.3677721036672592
aF0.47172630023956297
aF0.45819978791475297
aF0.4146806024312973
aF0.5612526356577873
aF0.34878032195568087
aF0.5519392874240875
aF0.4501648143529892
aF0.4146562929153442
aF0.514426189661026
aF0.44718459141254424
aF0.45290728378295897
aF0.4224811997413635
aF0.2736921224594116
aF0.48444395256042483
aF0.42555385386943817
aF0.41710366582870484
aF0.6112477815151215
aF0.6687921516895294
aF0.37144705963134766
aF0.2895903819799423
aF0.5035407047271728
aF0.6203856585025788
aF0.32391783106327054
aF0.4523524177074432
aF0.24329162561893464
aF0.6072369869947434
aF0.2840323238372803
aF0.6411367846131325
aF0.5304143571853638
aF0.5575395479202271
aF0.44043088471889497
aF0.3830976587533951
aF0.3809082397222519
aF0.5701531848907471
aF0.37982184052467344
aF0.3267071850299835
aF0.5444792317152023
aF0.27317687785625455
aF0.28547788405418395
aF0.6448495271205902
aF0.4997488578557968
aF0.44552081310749053
aF0.4529369494915009
aF0.32253291046619414
aF0.38121342957019805
aF0.49168324589729306
aF0.40379466807842257
aF0.3947547398805618
aF0.47360438799858096
aF0.5689898384809494
aF0.44286358666419984
aF0.36280901420116424
aF0.5314795001149177
aF0.5423660322427749
aF0.4649503793716431
aF0.48166186928749083
aF0.5464763519763947
aF0.46476431131362916
aF0.4790238937139511
aF0.46170864391326905
aF0.4682603528499603
aF0.689415968477726
aF0.3758797469139099
aF0.5407975568771363
aF0.6373437480926514
aF0.6808427031040192
aF0.59673251080513
aF0.549379403591156
aF0.3408800131082535
aF0.6820967628955841
aF0.23256923067569732
aF0.6370319377183914
aF0.6035826517343521
aF0.5004783588647842
aF0.5620756452083587
aF0.5413267078399658
aF0.5105196275711059
aF0.3957566442489624
aF0.5209898053407669
aF0.5795723190307617
aF0.44606502079963684
aF0.43374006712436675
aF0.5423944883346558
aF0.40690428876876833
aF0.6291084007024765
aF0.4478004837036133
aF0.5164558266401291
aF0.5650571897029877
aF0.424635756611824
aF0.7243187010288239
aF0.4753753387928009
aF0.606730770111084
aF0.6347263573408127
aF0.4613697965145111
aF0.495143948674202
aF0.5505266758203506
aF0.4139072828292847
aF0.5595430043935776
aF0.45566189277172087
aF0.6129316821098327
aF0.30716778326034544
aF0.6130884660482406
aF0.48636046624183654
aF0.5793600327968598
aF0.5046460275650024
aF0.3603195297718048
aF0.5716258542537689
aF0.3328276034593582
aF0.39912263572216033
aF0.20433457404375077
aF0.4470652633905411
aF0.3532326991558075
aF0.11882225114107133
aF0.1303160870075226
aF0.33787573742866517
aF0.10963898277282715
aF0.2202332034111023
aF0.26870801889896395
aF0.2674320768117905
aF0.36517551422119143
aF0.1999202436208725
aF0.49899175572395327
aF0.3367294816970825
aF0.21204217195510863
aF0.3110126516819
aF0.31978634202480316
aF0.3785533602237701
aF0.44042163181304933
aF0.3648129450082779
aF0.2663605833053589
aF0.32189825555682183
aF0.15256325244903565
aF0.28155572986602784
aF0.11393877279758453
aF0.14581816935539246
aF0.24372093975543976
aF0.15140346217155456
aF0.11864910674095154
aF0.321120236158371
aF0.3568609846830368
aF0.13083651983737946
aF0.08167573267221451
aF0.4362595888376236
aF0.29091665613651274
aF0.15727929508686064
aF0.17430337142944335
aF0.24775450944900512
aF0.19481706735491752
aF0.23756634551286698
aF0.23894677364826203
aF0.16445618748664856
aF0.16319034337997437
aF0.02888358688354492
aF0.13298934197425843
aF0.024750173926353456
aF0.4423711014986038
aF-0.03513564521074295
aF0.40255725574493406
aF0.1665900387763977
aF0.3747749799489975
aF0.07228160095214843
aF0.09194202637672425
aF0.14567647862434388
aF0.23873633468151093
aF0.12413081705570221
aF0.21074263978004457
aF0.40049417316913605
aF0.3378508459329605
aF0.2516022366285324
aF0.14123338222503662
aF0.15919242072105408
aF0.3579712452888489
aF0.12695388835668564
aF0.4088030993938446
aF0.2176105673313141
aF0.41737436163425445
aF0.3739683198928833
aF0.34422019493579864
aF0.25149310886859894
aF0.3535481052398682
aF0.44168289804458616
aF0.3995949528217316
aF0.20626332199573516
aF0.1621838541030884
aF0.42403974789381027
aF0.4703300007581711
aF0.3822396961450577
aF0.3424560965299606
aF0.33713999766111374
aF0.4078844938278198
aF0.2189356873035431
aF0.4096679252386093
aF0.2335841194987297
aF0.41368112552165986
aF0.44387858390808105
aF0.3106351102590561
aF0.22616605353355407
aF0.4213776292800903
aF0.37483421730995176
aF0.36082020318508146
aF0.3738038442134857
aF0.3779484486579895
aF0.2791270775794983
aF0.07527358102798462
aF0.3269136565923691
aF0.2679830204844475
aF0.3106197454929352
aF0.4789708297252655
aF0.3286849865913391
aF0.32228270494937894
aF0.09629093903303146
aF0.44368496823310855
aF0.2799918508529663
aF0.34942790627479553
aF0.38797792530059816
aF0.3228945505619049
aF0.31254457676410674
aF0.39747061055898664
aF0.2908140633702278
aF0.3147413600683212
aF0.4930344324111938
aF0.5016095988750457
aF0.4395587604045868
aF0.5447207881212235
aF0.3232193295955658
aF0.4089863522052765
aF0.463591335773468
aF0.32951575982570647
aF0.27816325235366823
aF0.5120750131011009
aF0.569285810828209
aF0.42797408866882325
aF0.4311673867702484
aF0.5574597961902619
aF0.304466652572155
aF0.28091345524787903
aF0.4267250990867615
aF0.529881255030632
aF0.4844530780315399
aF0.5031852709650994
aF0.38055956280231473
aF0.23835766541957856
aF0.5533879857361317
aF0.5500149894058705
aF0.37918023359775543
aF0.5068113768100738
aF0.3140476157665253
aF0.3818645241260529
aF0.5773844068050384
aF0.4245233924984932
aF0.5732408857345581
aF0.6620619382858276
aF0.5513195222616196
aF0.5861367332935333
aF0.6395009161233902
aF0.31334838092327116
aF0.5944862704277039
aF0.5859036962985993
aF0.5161274123191834
aF0.4558595719337463
aF0.4389802030324936
aF0.45823567819595334
aF0.3679422361850739
aF0.5375864583253861
aF0.42669125747680664
aF0.6846483383178711
aF0.4966639840602875
aF0.6444744548797607
aF0.5076349210739136
aF0.5030223815441132
aF0.42427652502059937
aF0.48894510221481324
aF0.6019637715816498
aF0.5557016563415528
aF0.7246882480382919
aF0.630934707403183
aF0.630563922405243
aF0.5518008450269699
aF0.5582769882678985
aF0.6012461993694306
aF0.7852347955703736
aF0.5488778283596039
aF0.4135030479431152
aF0.5319075787067413
aF0.36789993131160736
aF0.5623505971431733
aF0.6001355743408203
aF0.4717788033485413
aF0.5716564908027649
aF0.6225325779914856
aF0.5742793065309525
aF0.629354667186737
aF0.5525245053768157
aF0.540637078166008
aF0.45242614912986756
aF0.4723813354969025
aF0.6178942106962204
aF0.5522600033283234
aF0.6227220706939697
aF0.3976735554933548
aF0.6284543204307557
aF0.6172899510860443
aF0.6592073709964752
aF0.39515698957443235
aF0.5491838076114655
aF0.5775925688743592
aF0.6657896537780762
aF0.7297763754129409
aF0.577302878856659
aF0.5479793822765351
aF0.6807367421388626
aF0.4553974870443344
aF0.4725618063211441
aF0.5861653737425804
aF0.7312783477306366
aF0.6251432802677155
aF0.4864538813829422
aF0.516533693432808
aF0.5749362163543701
aF0.6324973967075348
aF0.4836968173980713
aF0.6524204672574997
aF0.5640978636741638
aF0.7232301824092865
aF0.5688695657253265
aF0.8782320526838303
aF0.41813365280628206
aF0.7871170729398728
aF0.5664415516853333
aF0.6882968875169754
aF0.5427085096836091
aF0.41311285096406936
aF0.6734139007329941
aF0.5318080360889434
aF0.6562828385829925
aF0.24226013112068176
aF0.5957377499341965
aF0.42954552185535433
aF0.6727652480602264
aF0.5043130596876144
aF0.3878613245487213
aF0.548140762090683
aF0.7847769891023636
aF0.521743994474411
aF0.4815762796401978
aF0.5684953655004501
aF0.7041623063087463
aF0.4080015493631363
aF0.7225517581701278
aF0.5257988362312317
aF0.47980238449573515
aF0.6407381194829941
aF0.6501098870038986
aF0.5610930055379868
aF0.5890824129581451
aF0.4388433223962784
aF0.3936625199317932
aF0.4670111252069473
aF0.4541194944381714
aF0.48378914141654966
aF0.4883922710418701
aF0.59459987616539
aF0.5938615065813064
aF0.5816144536733627
aF0.4061931607723236
aF0.6095389423370361
aF0.605978001832962
aF0.5498596661090851
aF0.5400421015024185
aF0.3904097799062729
aF0.4586876009404659
aF0.4569474545717239
aF0.5803299876451492
aF0.6919813616275787
aF0.4521854298710823
aF0.737236921429634
aF0.685842957496643
aF0.4604898782968521
aF0.5986180957555771
aF0.5210674252510071
aF0.6850030229091645
aF0.6302484540939332
aF0.4282603305578232
aF0.4968943750858307
aF0.4875083184242249
aF0.6970747474431992
aF0.6477370362281799
aF0.6953583688735961
aF0.5187314431667328
aF0.5916590319871903
aF0.7006886005401611
aF0.7065255957841873
aF0.652543644785881
aF0.7708060196638107
aF0.7390901539325714
aF0.34339342391490935
aF0.7319886350631714
aF0.5897594662904739
aF0.6569681366682053
aF0.7863015384674072
aF0.47929732012748716
aF0.7466484347581863
aF0.869016109585762
aF0.7439200809001922
aF0.4937233043909073
aF0.7699413936138153
aF0.6873714191913605
aF0.7879780616760254
aF0.7705641467571258
aF0.8828862262964249
aF0.6813490325212479
aF0.747816026687622
aF0.8222835714817047
aF0.6847350515127182
aF0.6120717477798462
aF0.8419019387960434
aF0.6637989717721939
aF0.7589537431001663
aF0.7988084406852722
aF0.8627557456493378
aF0.5661567087173462
aF0.8147627665996552
aF0.7100826306343079
aF0.7689257643222809
aF0.8613679856061935
aF0.6652796050310135
aF0.666661408483982
aF0.7313135352134704
aF0.8812947987318039
aF0.7962805393338204
aF0.8026173573732376
aF0.8169830718040466
aF0.8715173869132996
aF0.7101423125267029
aF0.8821315271854401
aF0.986956224322319
aF0.8206394944190979
aF0.8740033082962037
aF0.8634835327267647
aF0.9479851559400558
aF0.836106302022934
aF0.7954336490631103
aF0.6951391216516495
aF0.7792876631021499
aF0.7291116242408753
aF0.873403629541397
aF0.9262339241504669
aF0.7671284141540528
aF0.9242327306270599
aF0.7290373930931091
aF0.8917138764858246
aF0.7781584732532502
aF1.0537299132347107
aF0.8546648919582367
aF0.9848157112598419
aF0.8894301168918609
aF0.8712135193347931
aF0.914835501074791
aF0.9674490647315979
aF0.8844570183753967
aF0.9328668777942657
aF0.7739535598754883
aF0.871253653049469
aF0.914373188495636
aF1.094242281794548
aF0.7352670347690582
aF0.9268747911453247
aF0.913706549167633
aF0.6994392228126526
aF0.7213099653720856
aF0.9688134572505951
aF0.8650615801811218
aF0.9605119804143906
aF0.8521528198719025
aF0.7967878949642181
aF0.909630555152893
aF0.7990515949726105
aF0.9067731173038482
aF0.8160246772766113
aF0.9803207514286041
aF0.9647691035270691
aF0.9889527599811554
aF0.7752462356090546
aF1.0005768525600434
aF0.8265887488126755
aF0.9529857490062713
aF0.9007802996635437
aF0.9477549057006835
aF0.8849295253753662
aF1.0009447771310807
aF0.9571238662004471
aF1.086481294155121
aF0.861336400270462
aF1.0318720058202744
aF0.8344592514038086
aF0.8906770572662354
aF0.852597521185875
aF0.9564218828678132
aF0.9397023599147797
aF0.883128021478653
aF0.7391741992235183
aF0.7171785764694214
aF1.0866970963478089
aF0.9604355609416961
aF0.8429261164665223
aF1.0164399795532226
aF0.9065767447948456
aF0.8398095750808716
aF0.7532976496219635
aF0.9249888508319855
aF0.9371309212446213
aF0.8273150783777237
aF0.9674193994998932
aF0.9166515128612518
aF0.8539411202073097
aF1.0049964425563813
aF0.8597901668548584
aF0.9064065063595772
aF0.8442961187362671
aF0.9992683889865875
aF0.8880300951004029
aF0.9960132756233215
aF0.8597337430715561
aF0.9791854211091995
aF0.8123672205209732
aF0.6818720104694367
aF1.0695505670309067
aF0.9279447547197341
aF0.9218774322271347
aF1.0985157407522201
aF0.9785277059078217
aF0.8162362767457962
aF1.0298335461616517
aF0.8738417298793792
aF1.098816078543663
aF0.727380335688591
aF0.9963339064121246
aF0.9192510430812836
aF0.9317129598855972
aF0.9074372892379761
aF0.9024424858093262
aF0.9137464799880981
aF1.0147947427034378
aF1.1227111896276474
aF0.9412159831523895
aF0.9464546422958374
aF0.9134065034389496
aF0.9418950846195221
aF0.9882156100273133
aF1.016805819272995
aF0.931346853017807
aF1.0306082013845443
aF1.066180103302002
aF0.841712247133255
aF0.9345031936168671
aF0.9247842435836792
aF1.0732972148656845
aF0.8965507616996765
aF0.7955273623466492
aF0.9991099846363067
aF1.0343008496761321
aF0.8626549360752106
aF0.9859021559357644
aF1.3282001984119416
aF0.8590043132305145
aF1.0688566459417344
aF0.9269116951227188
aF0.9484134060144425
aF1.0555005724430084
aF0.9518802380561828
aF0.8656911094188691
aF0.8426409027576447
aF0.9297152597904206
aF0.9136883378028869
aF0.9141720774173736
aF0.919239848613739
aF0.9507867341041565
aF0.8425428397655487
aF0.9314745814800263
aF1.0235626960992814
aF1.048991131067276
aF0.8499236469268798
aF0.7449690282344819
aF0.8630829935073853
aF0.8665461664199829
aF0.8634450664520263
aF0.8007133378982544
aF0.8943118710517883
aF1.0227016422748565
aF1.00175869512558
aF0.988714220404625
aF0.9367493638992309
aF0.9992691168785095
aF1.0336541681289673
aF0.823169031381607
aF1.0360523211956023
aF1.153037681043148
aF1.0069018564224244
aF1.0871473636627198
aF0.9521449340581893
aF0.9193536586761475
aF0.8610988986492157
aF1.0545603290200234
aF1.0643308749198914
aF0.9548729199171067
aF0.8483627624511719
aF1.0795773490667344
aF0.9749468307495117
aF0.9662913925647736
aF0.9911705549955369
aF0.9944597398042678
aF0.9289056683778762
aF0.9698518480062485
aF0.9950160522460938
aF0.8910536756515502
aF1.1398311898708344
aF0.8731239864826202
aF0.9900556042194366
aF0.9147384264469147
aF0.8967174121141434
aF1.0571628404855729
aF0.9752953540086746
aF0.8788669385910034
aF1.1099857345819473
aF1.028204705476761
aF0.9772940936088562
aF0.9842028908729553
aF0.9288010045289993
aF0.9410022852420807
aF1.028882961511612
aF0.926714262008667
aF0.919868829369545
aF0.9057640278339386
aF0.8297821922302246
aF0.8001977384090424
aF0.9555965867042542
aF0.8404814977645874
aF0.9109390165805816
aF0.9794683414697647
aF0.9136838630437851
aF0.8706745059490204
aF1.0245200126171112
aF0.9890993146896362
aF0.9384943935871124
aF0.9471323192119598
aF0.9053663828372955
aF0.9264790170192718
aF0.858191365480423
aF0.9806545479297638
aF0.9365672310590744
aF0.9064070861339569
aF1.047821282029152
aF0.958896151304245
aF0.7909505896568298
aF0.9761825532913208
aF0.9492226796150207
aF0.8998509610891342
aF0.8468600151538849
aF0.7605853440761566
aF1.0095283892154694
aF0.8410970122814179
aF0.87685213804245
aF0.9314590530395508
aF0.9889971870183945
aF1.1621208367347717
aF0.9697334055900574
aF1.0317274247407913
aF0.9469105107784271
aF0.9235336869955063
aF0.9652473742961883
aF0.9181235039234161
aF1.0646162343025207
aF1.0182292819023133
aF0.9306613855361938
aF0.790703325510025
aF0.9624397097826004
aF1.055829770565033
aF0.9325561001300812
aF0.7470242063999176
aF0.8724699098467826
aF0.8201600270271301
aF0.89367243039608
aF1.031108912706375
aF0.9636966638565063
aF0.9640632264614105
aF1.0280230507850647
aF0.8752590721845627
aF0.8792352781295777
aF0.863422622680664
aF0.9645829918384552
aF0.8705756092071533
aF1.0082959971427918
aF0.8818788273334504
aF1.0046803135871887
aF1.1103049824237823
aF1.0688179545402527
aF0.8792740869522094
aF0.9319791567325592
aF0.8701162461042404
aF0.9921174684762954
aF0.9875948873758316
aF1.0246008989810944
aF1.0665774641036987
aF0.919462929725647
aF0.8908683990240097
aF1.0057891957759857
aF1.0204597957134247
aF0.8305468957424164
aF0.8668537276983261
aF0.9059972586631775
aF1.042591891527176
aF0.8655578074455261
aF0.9987546906471253
aF0.8525046167969703
aF0.9135828781127929
aF0.9648849582672119
aF0.9908304560184479
aF0.9764618844985962
aF0.8723743605613709
aF0.840765003144741
aF1.020115571975708
aF1.024424145102501
aF1.0053583357334137
aF0.8693482780456543
aF0.8844252177476883
aF1.1372639362812043
aF0.8630840468406678
aF0.8595218200683594
aF0.8814145641326905
aF1.028726331114769
aF1.1242493760585786
aF0.9542953157424927
aF0.8817101538181304
aF0.8494745658636094
aF0.9511916313171387
aF0.916754132270813
aF0.8056898381710053
aF0.9059965305328369
aF0.7827890008687973
aF0.9955160882472992
aF0.9628185355663299
aF0.9053855514526368
aF0.7127513914108277
aF1.0029444739818574
aF0.9477101893424987
aF0.9975934553146363
aF1.0200281500816346
aF0.9323810942173004
aF1.0783023897409438
aF0.9183471224308014
aF1.05386106300354
aF0.9481551423072815
aF0.9908894132971764
aF0.9327477815151215
aF1.0515544385910034
aF0.8010500342845916
aF1.0071596002578735
aF1.0658185696601867
aF0.8947889481782914
aF0.9460275822877884
aF1.0537767062187195
aF0.9326702153682709
aF1.1091071555614471
aF1.0918831290602684
aF1.0976456563472747
aF0.9787817366123199
aF1.0457325509786606
aF1.118447318315506
aF0.8398281230926513
aF0.9859850974082947
aF0.935580363869667
aF0.9689053474664688
aF0.9587278158664704
aF0.9922154569625854
aF0.9276852942705155
aF0.8501156200170517
aF0.7912128391265869
aF0.9102354164123535
aF0.9660355007648468
aF0.8940572253465653
aF0.9578333966732026
aF0.9971340024471282
aF1.0383982696533203
aF0.8553575103282929
aF0.9660168414115906
aF1.0521690113544464
aF1.065401168823242
aF1.0232765562534332
aF1.0347509763240814
aF0.9104710322618484
aF1.0224278619289398
aF0.9029870326519013
aF0.9595232127904892
aF0.8923798770904541
aF1.054741399049759
aF1.0840489706993104
aF0.9596835106611252
aF0.8598568979501724
aF0.9863048905134201
aF0.9925151121616363
aF1.077273041009903
aF0.8140478421449662
aF0.9822602517604828
aF1.0706856667995452
aF1.110708190202713
aF0.9247759866714478
aF0.9748063099384308
aF0.9260905145406723
aF0.9115735412836075
aF1.0819225854873658
aF0.9967550623416901
aF0.9343960711956024
aF0.9124986627101899
aF0.9928850944042206
aF0.963555639743805
aF1.0194329342842101
aF0.9746370071172714
aF1.0771478741168976
aF0.7198421711921692
aF0.93128926217556
aF0.9452492163181305
aF0.957953577041626
aF0.7994029915332794
aF0.954163545370102
aF0.9793900372982025
aF0.8971813426017762
aF1.1860733089447022
aF1.1191378350257875
aF0.901427368402481
aF0.9255748500823975
aF1.0706304807662963
aF1.0420337405204774
aF0.9605839726924896
aF0.9051716847419738
aF0.9005030333995819
aF0.9257960164546967
aF1.0897744777202607
aF0.8705966031551361
aF1.2495408544540405
aF0.698422091960907
aF0.929787147283554
aF1.0176220645904541
aF0.9223364527225495
aF1.0370089056491851
aF0.8818583905696868
aF0.9727996313571929
aF1.032554381608963
aF1.026764655828476
aF1.1263697838783264
aF1.0285532155036927
aF1.0357161762714386
aF0.8505495436191559
aF1.1984171431064605
aF1.0544289139509202
aF0.8907772252559661
aF0.919961579322815
aF1.1238762426376343
aF1.01245059633255
aF0.9650436520576477
aF0.9267553997039795
aF1.0438656344413757
aF0.99507672560215
aF1.049780649662018
aF0.943047912478447
aF1.005061527967453
aF0.9709974167346954
aF0.9220078948736191
aF0.8649628565311432
aF1.1028722647428513
aF1.0865620443820954
aF1.0092264561653137
aF0.8957636518478393
aF1.1690354070663451
aF1.137763681411743
aF0.976903831243515
aF1.0715687181949616
aF1.092058998823166
aF1.0630987784862518
aF1.0040487602949142
aF1.0852088651657104
aF0.8697917252779007
aF0.9435776913166046
aF1.0046186556816101
aF0.843626042842865
aF0.9795431349277496
aF1.050966783285141
aF0.9136005370616913
aF0.9784886960983277
aF0.9528850207328796
aF0.920221022605896
aF1.1143232898712159
aF0.9289262191057205
aF1.097337089061737
aF1.0057999033927918
aF0.9927568233013153
aF1.0087702379226684
aF0.8988545697927475
aF0.9931937651634216
aF1.0140368967056275
aF0.9961815021038055
aF1.0732484095096588
aF1.0449273633956908
aF1.158972582101822
aF0.9868193390369415
aF0.9312031259536743
aF1.1345743083953856
aF0.9721584751605987
aF1.1011448893547058
aF1.1061090574264527
aF0.9843687039613723
aF1.1214882137775422
aF0.8890427510738372
aF1.0646316990852356
aF1.0196264383792877
aF0.9438035843372345
aF1.0173854229450225
aF1.0740895547866822
aF1.0111926753520966
aF1.057541450738907
aF1.0067023832798003
aF1.0470314610004425
aF0.9619495964050293
aF1.0222891120910644
aF1.139575323820114
aF0.9795775420665741
aF0.9722156703472138
aF0.992552139043808
aF0.9914988987445831
aF1.1484936230182647
aF1.0664496781826018
aF1.091459551334381
aF0.9711790769100189
aF1.1456898417472838
aF1.195984465122223
aF1.1794677189588547
aF1.023384348154068
aF0.8706716656684875
aF1.0603497340679169
aF1.0244342830181121
aF1.108413353562355
aF0.9804685435295105
aF0.955874249458313
aF1.0443847563266755
aF1.0730511939525604
aF1.0005635282993317
aF0.9740462102890015
aF1.0976185367107392
aF0.9996231222152709
aF0.9322221801280975
aF1.0456060240268708
aF1.0961204149723054
aF1.0651560761928558
aF1.149169022679329
aF0.9511060482263565
aF1.0008577163219452
aF1.1593477430343628
aF0.8207607235014439
aF0.9720793099403381
aF1.0809379580020904
aF0.9114445997476578
aF1.285077174425125
aF1.1067800906896592
aF0.9624925482273102
aF1.0658806240558625
aF1.0107953703403474
aF1.0644114227294923
aF1.084757839679718
aF0.9181765592098237
aF1.0454709746837616
aF1.0199721844196319
aF1.0763700833320617
aF0.8843454862833023
aF1.0033499019145966
aF0.9807653285264969
aF1.0150489497184754
aF1.001748032093048
aF0.8771118158102036
aF0.9263111443519593
aF1.0569066805839538
aF1.0554659569263458
aF1.071964870929718
aF0.8807785388231277
aF1.0206521718502044
aF1.105438205599785
aF1.0592265337109565
aF1.0236796791553497
aF0.9674056921005248
aF1.1860022975206375
aF0.9135060696601868
aF1.0958463447093965
aF0.824662818312645
aF0.8990702953338623
aF1.086986500620842
aF0.9056096358299255
aF0.9982498297691346
aF0.982786819934845
aF0.9789258663654328
aF1.043597771167755
a.