(lp0
F-5.64781334400177
aF-1.8055573905706406
aF-0.7201002625226974
aF-0.5994057165384292
aF-0.6323463726043701
aF-0.5976038941144943
aF-0.705882817029953
aF-0.4100137013196945
aF-0.8467346889972687
aF-0.38965292727947237
aF-0.7235399478673935
aF-1.2067455139160157
aF-0.7936587116718292
aF-0.5094314393997192
aF-0.4166455798149109
aF-0.6432041893601418
aF-1.0070610766410828
aF-0.7100167566537857
aF-0.890692269563675
aF-0.6126578178405762
aF-0.5710058023929596
aF-0.795305169224739
aF-0.17203333473205568
aF0.005502480924129486
aF-0.27472354447841646
aF-0.7861203681230545
aF-0.28481043779850007
aF-0.09369414484500885
aF-0.09368827795982361
aF0.3038636965751648
aF0.07834940004348755
aF-0.35899972915649414
aF-0.01281209635734558
aF0.14332749772071837
aF0.09346922695636749
aF0.057254828691482545
aF0.2345857548713684
aF0.3294745309352875
aF0.5814502245187759
aF0.45538457536697385
aF0.29172068524360656
aF-0.02843031334877014
aF0.6150335466861725
aF0.7110124030113221
aF0.2580196053981781
aF0.6432392203807831
aF0.6402362909317016
aF0.44752653074264526
aF0.5578702738285065
aF0.5414532284736633
aF0.387822993516922
aF0.4151850037574768
aF0.11954979562759399
aF0.42436097598075867
aF0.5238583607673645
aF0.3469371122121811
aF0.21322597432136536
aF0.5449557257890701
aF0.32755679309368135
aF0.6656476645469666
aF0.1469164832830429
aF0.48419641208648684
aF0.6212144789695739
aF0.4236248652935028
aF0.5653554291725159
aF0.6079065644741058
aF0.8152189824581146
aF0.554999585211277
aF0.8685713233947754
aF0.6538097361326217
aF0.546383934020996
aF0.8084120225906372
aF0.3868221482038498
aF0.9533149838447571
aF0.7716269756555557
aF0.7607945989370346
aF0.764973162651062
aF0.6118311505317688
aF0.42478477931022646
aF0.7400754644870758
aF0.7723573045730591
aF0.8708434174060822
aF0.02205951392650604
aF0.7521927838325501
aF0.5786911890506744
aF0.411985702753067
aF0.39092659306526184
aF0.9340248413085938
aF0.7258926932811737
aF0.6896715738773346
aF0.6903585865497589
aF0.4586133142709732
aF0.7657783719301223
aF0.8405499935150147
aF0.7128783409595489
aF0.755211203455925
aF0.6909511375427246
aF0.6928135080337524
aF0.5750251542329788
aF0.8645815131664276
aF0.8775068755149842
aF1.012860743522644
aF0.6765229845046997
aF0.7010210123062134
aF0.5386125931739807
aF0.7688018670082092
aF0.5153956699371338
aF0.7394756660461426
aF0.511202943444252
aF0.40750205755233765
aF0.365920706987381
aF0.9215011780261994
aF0.623111330986023
aF0.5509905614852906
aF0.8607740941047668
aF0.24209495770931244
aF1.0154048702716827
aF0.652792804479599
aF0.354397402882576
aF0.7245399940013886
aF0.9086366019248963
aF0.5981754906177521
aF0.4829778625965118
aF0.8569099407196045
aF0.855849695801735
aF1.0445631208419799
aF0.6617740515470505
aF0.3338760304450989
aF0.5946321073770523
aF0.46755699801445005
aF0.7995852360725403
aF0.9824432005882263
aF1.0551905827522279
aF1.0383742640018463
aF0.37892746925354004
aF1.1022379057407379
aF0.4918983488082886
aF0.945592499256134
aF0.9020155094861985
aF0.6085807194709778
aF0.3346537834405899
aF0.8611803333759308
aF0.8073825781345367
aF0.781806648015976
aF0.8791661611795425
aF0.946571700334549
aF0.8882823133468628
aF0.9203810861110687
aF0.8414968543052673
aF0.6973196587562561
aF0.7836823699474335
aF0.9517662191390991
aF0.8136087095737458
aF0.478378390789032
aF0.9346750886440277
aF0.6043548958301544
aF0.9540126103162766
aF0.9166865766048431
aF0.9670920188426971
aF1.0259879295825958
aF1.0185865588188172
aF0.6551443048715592
aF-0.1363829562664032
aF-0.7381831440925598
aF-0.45546785843372345
aF-0.5192550325393677
aF-0.49320082342624666
aF-0.5049066529870033
aF-0.34672665309906003
aF-0.22904550844430924
aF-0.6678858315944671
aF-0.5510433211326599
aF-0.04191762101650238
aF-0.7349795419573784
aF-0.6340481517314911
aF-0.09997206711769104
aF-0.9868553841114044
aF-0.5449718195199966
aF-0.4006018416881561
aF-0.9520009415745735
aF-0.7497933458089828
aF-0.6871974396705628
aF-1.0336359573602676
aF-0.8869069316387177
aF-0.4236958873271942
aF-0.6127360460758209
aF-0.5778139077425003
aF-0.7536448396444321
aF-0.39436746227741243
aF-0.24322708070278168
aF-0.7435629894733429
aF-0.5743468934297562
aF-0.6038475912809372
aF-0.8417370789051056
aF-0.6481185488700867
aF-0.7385208761096
aF-1.127270970225334
aF-1.2081272295713426
aF-0.4523762539625168
aF-0.6306746834516526
aF-0.7843377808332443
aF-0.3261816267967224
aF-0.7832636082172394
aF-0.34583318412303926
aF-0.8788519455194473
aF-0.6745994350910187
aF-0.5461230897903442
aF-0.6783838195800781
aF0.04453278148174286
aF-0.25192007410526274
aF-0.1489968647956848
aF-0.6005931247472763
aF-0.44029741203784944
aF-0.5839145393371582
aF-0.014281447052955627
aF-0.5604960136115551
aF-0.0975750499367714
aF-0.2383301613330841
aF-0.2074762613773346
aF-0.41412066864967345
aF-0.2863546600341797
aF-0.7453182229995727
aF-0.5097005152702332
aF0.12412582635879517
aF0.28988841724395753
aF0.2672224897146225
aF-0.6957810604572296
aF-0.6887088295817375
aF-0.16223258709907531
aF-0.1142533893585205
aF-0.08531619918346404
aF-0.2718509542942047
aF0.1483554437160492
aF0.34166380536556246
aF-0.09693288564682007
aF0.26484884905815126
aF-0.06608887577056885
aF-0.2560772662162781
aF0.2226378175020218
aF0.4180689527988434
aF-0.2392013338804245
aF-0.040502731680870055
aF-0.23874193716049194
aF0.3342590144872665
aF0.05921791446208954
aF-0.22931616914272307
aF0.13730058467388154
aF0.5012778069972992
aF0.26222571420669555
aF0.30774144983291624
aF0.4002910133600235
aF0.31360407602787016
aF-0.2547381181716919
aF0.3791080061197281
aF0.16503134727478028
aF0.3292780954837799
aF0.5156733167171478
aF-0.14973144495487214
aF0.043425094485282895
aF-0.02274058961868286
aF0.5189479653239251
aF0.577843384027481
aF0.5123681777715683
aF0.412522686958313
aF0.053710317611694335
aF0.3606877245903015
aF0.18995754384994507
aF0.036464796900749205
aF0.36156122612953184
aF0.3307210825681686
aF0.4599262555837631
aF0.24942086744308473
aF0.4238009090423584
aF0.23177977448701859
aF0.5130178463459015
aF0.5646291704177856
aF0.4331170825958252
aF0.24525047367811204
aF0.5419602019786834
aF0.6301591883897781
aF0.4388236417770386
aF0.6268620517253876
aF0.5940951726436615
aF0.3485532554388046
aF0.6217444860935211
aF0.5631602826118469
aF0.38505608892440796
aF0.31259258580207827
aF0.714103732585907
aF0.20726000678539275
aF0.32448940294981005
aF0.44889243531227113
aF0.4748872606754303
aF0.07969502401351929
aF0.6020874001979828
aF0.4855121599435806
aF0.5475236200094223
aF0.4914027706384659
aF0.37251551723480225
aF0.30874062168598176
aF0.5791967409849167
aF0.4984747989177704
aF0.4370270001888275
aF0.30263037705421447
aF0.7601328496932983
aF0.6184363364577293
aF0.5567371385097504
aF0.5781254694461823
aF0.380797105550766
aF0.7222664160728455
aF0.24146050143241882
aF0.4022131984233856
aF0.5439347555637359
aF0.6684975726604462
aF0.7827620168328285
aF0.6418918218612671
aF0.6923861597776413
aF0.4075875744819641
aF0.5346329765319824
aF0.2206720257997513
aF0.7819232259988784
aF0.762742773771286
aF0.17082345581054686
aF0.7452518082857132
aF0.4544061732292175
aF0.7421288228034973
aF0.6847975264787673
aF0.7936428167819977
aF0.9510873215198516
aF0.5229193150997162
aF0.5675117025375366
aF0.726165266752243
aF0.33253180658817294
aF0.716739601969719
aF0.9040724976062775
aF0.5068356087207794
aF0.7038841406106949
aF0.8344649097919464
aF0.7341609857082367
aF0.7553714172840118
aF0.523468300819397
aF0.725448203086853
aF0.8904986226558685
aF0.6117396056652069
aF0.44832058882713316
aF0.47774360609054567
aF0.9383610551357269
aF0.7542343933582306
aF0.8089895348548889
aF0.8314194978475571
aF0.4078144438266754
aF0.791293448805809
aF0.6143282558918
aF0.3872639026641846
aF0.4240010802745819
aF0.6214930515289306
aF0.8893992359638214
aF0.6522112476825714
aF0.8134474561214448
aF0.36866725993156435
aF0.7883176164627075
aF0.7125166673660278
aF0.8955989317893982
aF0.8226653887033463
aF0.8432152565717698
aF0.720251024723053
aF0.5344083973169327
aF0.5589244434833527
aF0.8014528639316559
aF0.666962939620018
aF0.9444107013940811
aF0.6488322496414185
aF0.5623171620368957
aF0.3580591344833374
aF0.40674509525299074
aF0.8472146847248078
aF0.5209609540700912
aF0.9554450895786285
aF0.3333830060958862
aF0.6438141396045685
aF0.6492288492918015
aF0.31758079075813295
aF0.9423516244888306
aF0.6779149627685547
aF0.9540301904678344
aF1.083000286102295
aF0.9504143190383911
aF1.0094432814121246
aF1.0477844133377074
aF0.6530597259998322
aF0.8537783652544022
aF0.6620929958820343
aF0.9173824915885925
aF0.8431978011131287
aF0.9604496455192566
aF0.6144147465229034
aF0.802421945810318
aF0.7658912768363952
aF0.9446942486166954
aF0.7762930489778519
aF0.7643676438331604
aF0.5811397364139557
aF0.7522257342338562
aF1.0317689187526702
aF1.0053208448886872
aF1.0918724913597107
aF0.9026868540048599
aF0.7793219164609909
aF1.0237711424827576
aF0.9613989968299865
aF1.0253147213459015
aF0.7967166106700897
aF0.5227857794761658
aF0.9729079382419586
aF1.0438073754310608
aF0.9887346365451812
aF0.8980363008975982
aF1.117914664030075
aF0.6294621186256408
aF1.0346813151836396
aF0.9158247913122177
aF1.0755670025348663
aF1.1069993579387665
aF1.0961343896389009
aF0.8648783249855041
aF1.0735009818077088
aF1.2336729676723481
aF1.0579643865823747
aF1.0584400950670243
aF1.0531228075027466
aF1.089912286400795
aF1.1626828851699829
aF0.980127105474472
aF1.0534981961250305
aF1.1929422149658202
aF0.9397118911743164
aF1.0164093542099
aF1.0910932130813598
aF0.9004536399841309
aF1.04886963224411
aF1.0684962809085845
aF1.0779217405319215
aF1.1152013204097748
aF1.0795557191371918
aF1.134077017068863
aF1.2701651334762574
aF1.1062683575153351
aF1.0865176959037781
aF1.1526891801357269
aF1.0042761580944062
aF0.9805246081352234
aF1.148803243637085
aF1.2771737389564515
aF1.1357383754253387
aF1.21987668132782
aF1.2141334371566772
aF1.0951419200897217
aF1.1379820754528045
aF1.0576160800457002
aF1.2153815588951111
aF1.1309984743595123
aF1.0038290526866913
aF1.0553301663398742
aF1.0847588496208191
aF0.9921382079124451
aF1.1968318569660186
aF1.1608086867332459
aF1.1606286399364472
aF1.1714630408287048
aF1.1897457637786866
aF1.2221301929950714
aF1.0725919358730316
aF1.1151555535793305
aF1.2098558773994446
aF1.0008996300697326
aF1.0370665566921233
aF1.1528896067142487
aF0.9467760930061341
aF1.037346466422081
aF1.155131578207016
aF1.2246686725616456
aF1.1091511187553407
aF1.0789948000907899
aF1.0632786979675293
aF1.1782738828659058
aF1.1396441407203675
aF1.3226119062900543
aF0.9851342551708221
aF1.1592950332164764
aF1.1121517634391784
aF1.1629952045679093
aF1.2255925073623657
aF1.2413952169418334
aF1.1451645963191985
aF1.1433541872501374
aF1.1148767757415772
aF1.2290977199077606
aF1.0596516889333725
aF1.0648845171928405
aF1.281135910511017
aF1.2127195274829865
aF1.1301651351451873
aF1.0821898872852325
aF1.224752765417099
aF1.1709738240242005
aF1.3357083139419557
aF1.1626325361728669
aF1.260546136856079
aF1.1581427137851714
aF1.1575845162868499
aF1.1633180935382843
aF1.162437816262245
aF1.162617274403572
aF1.1458491425514221
aF1.253754813671112
aF1.1906740140914918
aF1.1484587268829345
aF1.070133096218109
aF1.2060012266635896
aF1.061027931690216
aF1.1479946086406707
aF1.1514933598041535
aF1.1565817890167236
aF1.1410370635986329
aF1.1459883650541305
aF1.159406683921814
aF1.240166799545288
aF1.1482249341011048
aF1.3138466815948486
aF1.1139818570613862
aF1.1650075225830079
aF1.2701031596660615
aF1.230437608242035
aF1.1928944997787476
aF1.1201879658699037
aF1.0306603081226349
aF1.2347025761604309
aF1.2205236217975617
aF0.9328233716487885
aF1.1780844550132752
aF1.1083181858062745
aF1.0468588383197786
aF1.1464720306396485
aF1.2042321767807007
aF1.1317398076057434
aF1.2283179659843444
aF1.1603703806400298
aF1.1530125625133514
aF1.1901678411960601
aF1.176401438474655
aF1.2863778977394105
aF1.1490472540855408
aF1.141669583082199
aF1.1322619752883911
aF1.1903895959854125
aF1.1388645350933075
aF0.9936519763469696
aF1.2133169226646423
aF1.2759073386192321
aF1.190629225254059
aF1.1122529785633086
aF1.153236613512039
aF1.1450020070075988
aF1.1552329835891724
aF1.158561021566391
aF1.2257200582027434
aF1.1144486112594605
aF1.2672130088806153
aF1.042306257724762
aF1.1692488114833832
aF1.263715764284134
aF1.2351752617359162
aF1.2033870091438295
aF1.3435549719333648
aF1.3511669623851776
aF1.16973388838768
aF1.1955152864456178
aF1.29861763381958
aF1.3071069531440735
aF1.187702033996582
aF1.2430555677413941
aF1.2266357822418212
aF1.17458043050766
aF1.1152257351875305
aF1.157330240726471
aF1.1816586396694184
aF1.1720919287204743
aF1.2723065803050995
aF1.1981532361507417
aF1.2398072814941405
aF1.210905238866806
aF1.1757649252414704
aF1.3125196642875672
aF1.1233490509986876
aF1.1856316621303558
aF1.101182683467865
aF1.0701232569217682
aF1.118759778022766
aF1.178874329328537
aF1.0467581701278688
aF1.0400935628414154
aF1.3391908142566682
aF1.171293930530548
aF1.0746850979328155
aF1.2333522207736969
aF1.174166818857193
aF1.201500892162323
aF1.2251973497867583
aF1.1407265124320984
aF1.1718081252574921
aF1.1737302012443542
aF1.0773491091728211
aF1.2339023759365082
aF1.2596824142932892
aF1.0466160418987274
aF1.2674357841014863
aF1.1175412077903748
aF1.2366023163795472
aF1.2833009135723115
aF1.3115426540374755
aF1.1963323380947113
aF1.1746243433952333
aF1.2727498111724853
aF1.2408020462989806
aF1.23840403175354
aF1.224431349515915
aF1.0324949917793274
aF1.2043665220737458
aF1.3298557839393617
aF1.1086776049137115
aF1.2375940806865693
aF1.2651637258529662
aF1.2625241634845734
aF1.189294770717621
aF1.1712743899822236
aF1.0807829787731171
aF1.2467426295280457
aF1.1777311465740203
aF1.2365140104293824
aF1.1390456938743592
aF1.2615258316993714
aF1.0847423429489136
aF1.1994368181228638
aF1.1552177774906158
aF1.185693841934204
aF1.1300207469463348
aF1.1816143155097962
aF1.1771037840843201
aF1.1255391943454742
aF1.039837921857834
aF1.211389499425888
aF1.2133158917427063
aF1.2101517288684844
aF1.2258204321861268
aF1.2242864928245545
aF1.2704204847812652
aF1.128386001586914
aF1.1498252437114715
aF1.1607278094291686
aF1.2077370359897615
aF1.1725207047462463
aF1.0788268630504607
aF1.1742982206344605
aF1.2308359797000885
aF1.22845045876503
aF1.1166832356452943
aF1.077043642759323
aF1.281723373413086
aF1.1995554161071778
aF1.2337582447528839
aF1.2911746046543122
aF1.1889269251823424
aF1.2001945559978484
aF1.136129643201828
aF1.1193358454704285
aF1.1388888812065125
aF1.0873995988368987
aF1.123695479631424
aF1.1665648539066316
aF1.1016460633277894
aF1.1458070693016051
aF1.0905589644908904
aF1.268022007226944
aF1.3176112287044526
aF1.0574774038791657
aF1.2240645956993104
aF1.2215404057502746
aF1.3123765766620636
aF1.2699666225910187
aF1.093382826089859
aF1.212044162750244
aF1.1780869784355164
aF1.2209922153949737
aF1.036056817293167
aF1.193979035615921
aF1.0982851629257202
aF1.1232239875793457
aF1.1217935605049134
aF1.1329478044509889
aF1.080299209356308
aF1.2237568202018738
aF1.2015839672088624
aF1.185903868675232
aF1.1373765313625335
aF1.2320297389030457
aF1.2342090787887574
aF1.2186673612594605
aF1.0616652426719666
aF1.2977526149749756
aF1.1573389868736268
aF1.200806519508362
aF1.1810576462745666
aF1.2225889565944672
aF1.3896178860664368
aF1.1296568143367767
aF1.0952031836509704
aF1.2514646410942079
aF1.1332458794116973
aF1.2332520155906677
aF1.2687893943786621
aF1.1181661579608917
aF0.9953608305454255
aF1.3606495308876037
aF1.2209167835712433
aF1.1491533966064453
aF1.3071240606307983
aF1.1324986281394958
aF1.2523461422920228
aF1.2630706615447997
aF1.1917611918449402
aF1.2641814243793488
aF1.1360591506958009
aF1.141636174440384
aF1.1884321434497833
aF1.1299420261383057
aF1.1307391967773437
aF1.268828807115555
aF1.1324978685379028
aF1.2317615444660186
aF1.1622417299747467
aF1.2534242870807648
aF1.2776610085964202
aF1.1408310930728913
aF0.9229952516555786
aF1.2585793046951295
aF1.203888988018036
aF1.2019342832565307
aF1.2657301034927368
aF1.132927928686142
aF1.2309340298175813
aF1.1504316861629487
aF1.3089486463069915
aF1.1857171196937561
aF1.1840496196746826
aF1.150457344532013
aF1.1685625939369202
aF1.2603231551647187
aF1.0981345744132995
aF1.1533982479572296
aF1.0438516418933868
aF1.1304583706855773
aF1.233563276052475
aF1.2035398905277253
aF1.1295837349891662
aF1.2882311673164368
aF1.2871023676395417
aF1.103192266702652
aF1.1823416848182677
aF1.232752163887024
aF1.232558619260788
aF1.2439270050525666
aF1.247387000322342
aF1.2248472969532014
aF1.0775067076683045
aF1.207038953781128
aF1.2139445433616638
aF1.1271552336215973
aF1.284762390613556
aF1.2167092609405517
aF1.1942963132858275
aF1.237780477285385
aF1.1025448684692383
aF1.2391435601711274
aF1.2919914944171906
aF1.2257153987884521
aF1.1994985122680664
aF1.1233660445213318
aF1.0854022648334503
aF1.283936328649521
aF1.2487405972480774
aF1.2319716081619263
aF1.1437692935466766
aF1.0689140133857726
aF1.177622496843338
aF1.236652771949768
aF1.183023090362549
aF1.216288543701172
aF1.3095979881286621
aF1.23046293091774
aF1.2000760979652405
aF1.193811508655548
aF1.2420281155109405
aF1.252805053472519
aF1.2281051819324493
aF1.2776193072795867
aF1.179515100479126
aF1.2627202785015106
aF1.1011503555774689
aF1.1121761641502381
aF1.1267101361751557
aF1.152685968875885
aF1.0802116861343385
aF1.1168285825252533
aF1.2044877903461457
aF1.2507738082408906
aF1.2202261304855346
aF1.2868038804531097
aF1.2590819659233092
aF1.2951217892169953
aF1.0705590953826905
aF1.2579220600128174
aF1.1721935136318207
aF1.2157662258148194
aF1.1096925947666167
aF1.1949401016235353
aF1.1889481563568116
aF1.1305263245105743
aF1.2562948892116546
aF1.294229166507721
aF1.1809926302433014
aF1.2216472597122192
aF1.2105577492713928
aF1.326751571416855
aF1.1628647367954255
aF1.2376053557395934
aF1.2633138287067414
aF1.1086560440063478
aF1.0948799765110016
aF1.2480572843551636
aF1.2129002997875213
aF1.1931561019420625
aF1.1762318401336669
aF1.2200574822425843
aF1.134331337928772
aF1.160888243675232
aF1.2350803246498108
aF1.1814341566562652
aF1.0439571166038513
aF1.2001848688125611
aF1.130137607574463
aF1.2361632621288299
aF1.3131889636516572
aF1.32019193983078
aF1.2254929497241973
aF1.1213763566017152
aF1.239617304801941
aF1.1938963487148284
aF1.1925671901702881
aF1.3204101042747498
aF1.1646832177639008
aF1.239168312072754
aF1.1248383181095123
aF1.0926209592819214
aF1.135257583141327
aF1.2640851519107819
aF1.1933128108978273
aF1.1005260133743286
aF1.0714276654720307
aF1.3130581352710724
aF1.1869201748371123
aF1.2537979655265807
aF1.2907326006889344
aF1.1388595671653747
aF1.0672120554447173
aF1.2456306154727936
aF1.136773258447647
aF1.0872918210029603
aF1.245660225391388
aF1.3119606847763061
aF1.191175909280777
aF1.0720820860862732
aF1.252767386674881
aF1.0908479731082916
aF1.193341007232666
aF1.1621946258544922
aF1.1803558444976807
aF1.1632194452285767
aF1.205070954799652
aF1.293677290916443
aF1.2173994555473329
aF1.2231433389186859
aF1.2357744767665864
aF1.3482346475124358
aF1.2727287447452544
aF1.1535884652137756
aF1.1837219281196594
aF1.3053832116127013
aF1.2740313594341277
aF1.264554069042206
aF1.1683094911575318
aF1.1363830637931824
aF1.171193279504776
aF1.3013171491622926
aF1.2063807196617127
aF1.3145384845733643
aF1.110700813293457
aF1.2324320871829986
aF1.1723798191547394
aF1.201502117395401
aF1.1925348672866822
aF1.1927802767753601
aF1.1926576941013336
aF1.2428275651931762
aF1.16262522482872
aF1.1802381501197814
aF1.1334489259719849
aF1.1811617085933686
aF1.0948121252059937
aF1.257356184720993
aF1.2046895537376403
aF1.2011062567234039
aF1.2255329811573028
aF1.137865338563919
aF1.2805480206012725
aF1.1958997855186462
aF1.1599865829944611
aF1.1493938875198364
aF1.2355474545955658
aF1.0993032834529877
aF1.24372048163414
aF1.238795921087265
aF1.2042311985492706
aF1.296178365468979
aF1.1689109938144684
aF1.0675971052646638
aF1.098237349510193
aF1.1894315326213836
aF1.1550308244228362
aF1.0930489461421966
aF1.1787557861804963
aF1.1780624082088471
aF1.2047059144973755
aF1.2069455914497376
aF1.1615992715358734
aF1.2578677875995636
aF1.1371246576309204
aF1.2346378321647644
aF1.2145710453987122
aF1.2697798492908479
aF1.1176283564567566
aF1.2639892609119416
aF1.3345537133216858
aF1.1447802276611327
aF1.227248152256012
aF1.0039129054546356
aF1.19378714966774
aF1.0817310156822204
aF1.1169588704109192
aF1.2446557953357698
aF1.0701573114395142
aF1.203639060974121
aF1.3421071979999541
aF1.0804036083221435
aF1.2414650864601136
aF1.255981315612793
aF1.2041197707653046
aF1.3275503568649292
aF1.2620966255664825
aF1.2439447104930879
aF1.0725398590564728
aF1.1287921423912048
aF1.1833633930683136
aF1.2089165239334105
aF1.3332394416332245
aF1.1169318234920502
aF1.2438446102142333
aF1.2983551959991455
aF1.095626339673996
aF1.26094047665596
aF1.3199127678871154
aF1.190801022529602
aF1.2267622270584106
aF1.215751019001007
aF1.2357591729164124
aF1.207750034570694
aF1.1081968853473663
aF1.1127423329353332
aF1.1051874215602875
aF1.2105572392940522
aF1.103862689256668
aF1.3272609724998474
aF1.2492188160419464
aF1.3480980904102327
aF1.1364579946994782
aF1.1160588409900665
aF1.1009378397464753
aF1.2833213748931884
aF1.1982777976989747
aF1.2505342082977295
aF1.25333922123909
aF1.2194330444335937
aF1.1633089950084687
aF1.1085046479701997
aF1.1981084914207458
aF1.121113317012787
aF1.1675934436321258
aF1.2544890658855439
aF1.2325847573280335
aF1.1650542306900025
aF1.33309308719635
aF1.2938518853187562
aF1.2641275498867035
aF1.1703150341510773
aF1.3168681418895722
aF1.22816992688179
aF1.3118908152580262
aF1.261945851802826
aF1.157523331642151
aF1.221752406835556
aF1.2238853447437286
aF1.1097227590084076
aF1.1883423683643342
aF1.2108147246837615
aF1.2918004820346831
aF1.2216306614875794
aF1.3236555407047272
aF1.1773212544918061
aF1.1748530476093293
aF1.278426675081253
aF1.2229818778038024
aF1.1389571423530578
aF1.1914872262477876
aF1.274505464553833
aF1.1516307973861695
aF1.202202875137329
aF1.138117577791214
aF1.2475035998821258
aF1.2599652159214019
aF1.249088752746582
aF1.1093075671195984
aF1.199162010192871
aF1.187242070913315
aF1.2188813614845275
aF1.1067274303436279
aF1.3464906561374663
aF1.0634611036777497
aF1.2089112684726715
aF1.1894308726787568
aF1.3108020906448363
aF1.171588227748871
aF1.0833179321289061
aF1.3334855129718781
aF1.3242470576763152
aF1.1794988799095154
aF1.267820683479309
aF1.3258017168045044
aF1.3084196085929871
aF1.2668138377666474
aF1.1400848100185395
aF1.1134680776596069
aF1.242838636636734
aF1.3066486475467682
aF1.2593538513183593
aF1.1597687349319459
aF1.1775692031383513
aF1.2524543092250824
aF1.2337057733535766
aF1.2907318229675293
aF1.1371124596595765
aF1.058799739599228
aF1.2113434123992919
aF1.1814238076210022
aF1.1446096909046173
aF1.1354899649620056
aF1.274009598016739
aF1.2837722811698913
aF1.1345299484729767
aF1.2791412250995635
aF1.1694415652751922
aF1.2236879296302796
aF1.1497540664672852
aF1.2770534148216248
aF1.2683721027374268
aF1.2973535010814667
aF1.1605704593658448
aF1.1591181979179381
aF1.190260576725006
aF1.315835684299469
aF1.314783126115799
aF1.165954172372818
aF1.1892646255493164
aF1.1100205273628234
aF1.1680918788909913
aF1.2887412683963775
aF1.2419208307266236
aF1.302246809244156
aF1.2058243596553802
aF1.1012998893260957
aF1.0730108845233917
aF1.2539547011852263
aF1.0880664987564086
aF1.1904021005630494
aF1.1480409426689149
aF1.2476569759845733
aF1.1057970707416533
aF1.1097616262435912
aF1.0764909031391143
aF1.1123652777671813
aF1.2460294563770293
aF1.178550773859024
aF1.1403399336338043
aF1.0997875723838806
aF1.1393854880332948
aF1.2361673612594604
aF1.1861056945323945
aF1.1739879183769226
aF1.256559731245041
aF1.2829960448741913
aF1.0244067332744597
aF1.0784883670806884
aF1.147880556821823
aF1.0082554314136505
aF1.3003801810741424
aF1.212744233608246
aF1.261029328107834
aF1.082789413690567
aF1.0862436685562133
aF1.1825278706550597
aF1.1812113690376282
aF1.2173019506931304
aF1.1085691018104553
aF1.2520369141101837
aF1.207613998413086
aF1.270682711839676
aF1.1873480970859527
aF1.1567459964752198
aF1.0982582972049713
aF1.2180525224208831
aF1.088784738779068
aF1.099918420314789
aF1.0892237422466278
aF1.214256113767624
aF1.1476226541996002
aF1.187733128786087
aF1.1103999483585358
aF1.2799362990856171
aF1.1589587652683258
aF1.1742605481147765
aF1.2669474217891694
aF1.1417278933525086
aF1.2590204923152923
aF1.1934950542449951
aF1.2675643174648286
aF1.1871184196472169
aF1.2031485893726348
aF1.0171582531929015
aF1.2009341461658478
aF1.1575371625423432
aF1.2282827377319336
aF1.2758645658493042
aF1.1468794989585875
aF1.311479026556015
aF1.1774309124946594
aF1.2763182609081267
aF1.174616785287857
aF1.2857057712078095
aF1.2237270450592042
aF1.2848519849777222
aF1.09647984457016
aF1.1233304822444916
aF1.2671693787574767
aF1.2372461061477662
aF1.3183199980258942
aF1.108835138320923
aF1.167619358062744
aF1.266301078081131
aF1.1171231853961945
aF1.1252026801109314
aF0.9271331489086151
aF1.277799259185791
aF1.2404473617076874
aF1.2669142491817473
aF1.231605168581009
aF1.1940947344303132
aF1.1160567419528962
aF1.2261624474525452
aF1.3435162110328673
aF1.1921777651309966
aF1.1432302000522614
aF1.2635275876522065
aF1.1258883669376374
aF1.27877965092659
aF1.2889019403457642
aF1.0846647362709045
aF1.196734981060028
aF1.2889479122161864
aF1.0911080811023712
aF1.291507690668106
aF1.2388081443309784
aF1.1396208553314209
aF1.2724173913002015
aF1.2079780485630036
aF1.1274137389659882
aF1.2841676325798035
aF1.1828340010643006
aF1.182354986667633
aF1.074493896484375
aF1.2528002073764801
aF1.1998841071128845
aF1.2196966896057129
aF1.2253187115192414
aF1.1784081904888153
aF1.226762814760208
aF1.1840239675045015
aF1.1571626932621002
aF1.2146360840797423
aF1.234133505344391
aF1.1822608602046967
aF1.1159426856040955
aF1.2164165415763855
aF1.155095314502716
aF1.2023796298503875
aF1.1978644285202027
aF1.1706233887672424
aF1.234551240682602
aF1.2054772279262542
aF1.271302980184555
aF1.2387856669425965
aF1.2500019409656524
aF1.275336898803711
aF1.2911866338253022
aF1.2101015887260438
aF1.2643000824451447
aF1.2177730989456177
aF1.1476065030097962
aF1.202483682870865
aF1.293213262796402
aF1.2191264102458954
aF1.1045070922374725
aF1.1007947704792023
aF1.2401783328056335
aF1.2676690824031829
aF1.1124726462364196
aF1.1522575073242187
aF1.259738383293152
aF1.1079104900360108
aF1.126348699092865
aF1.3111461036205292
aF1.2238462090492248
aF1.1553658928871156
a.