(lp0
F-4.6161199822425845
aF-1.6005434814691544
aF-1.4761560375094414
aF-1.1841289240121842
aF-1.0106794351935386
aF-1.2370717339813708
aF-1.0701380859017373
aF-0.9792654656171799
aF-1.1699805626869202
aF-1.236988983631134
aF-0.8365473242998123
aF-1.043987954735756
aF-1.1117336846590042
aF-0.8742159066200257
aF-0.6778236542940139
aF-0.7766442666649819
aF-1.0901023019552232
aF-0.7130878378152847
aF-0.9239256798028946
aF-1.0466703778505326
aF-1.0073160495758056
aF-1.2021059836745263
aF-0.7070779923796654
aF-0.6783522911071778
aF-0.49229761385917664
aF-0.8062553247213363
aF-0.3861066063642502
aF-0.4968973118066788
aF-0.6065508000850678
aF-0.37919736564159395
aF-0.5764455552101135
aF-0.6559801236391067
aF-0.6732345777750015
aF-0.41751251471042633
aF-0.4201831740140915
aF-0.3882410961389542
aF-0.3022174617052078
aF-0.49816814732551573
aF-0.3414627137184143
aF-0.2178745493888855
aF-0.2968924739360809
aF-0.4253763693571091
aF-0.2653472429513931
aF-0.4603062578439713
aF-0.08640390646457673
aF-0.28435498046875
aF-0.059236476302146915
aF-0.2592863789200783
aF-0.207903453707695
aF-0.19489370810985565
aF-0.09856271743774414
aF-0.003927752256393433
aF-0.22049353861808776
aF-0.16250852167606353
aF-0.3097638314962387
aF-0.11965422129631043
aF0.06401816153526306
aF-0.005608385801315308
aF0.13000889647006988
aF-0.035687804579734805
aF0.21578886759281157
aF-0.2070910121202469
aF-0.18031008744239807
aF-0.06405935144424438
aF0.03851302051544189
aF0.009489597320556641
aF0.1035212551355362
aF-0.059920651972293855
aF0.1527452930212021
aF0.14611270332336426
aF-0.16487331104278563
aF0.0737139562368393
aF0.16175951266288757
aF0.04600832259654999
aF0.2446858961582184
aF-0.022147799968719482
aF0.11901341903209686
aF0.32482230055332184
aF0.19656620943546296
aF0.10026219207048416
aF0.287948609828949
aF0.2275729568004608
aF0.3177495846748352
aF0.09852532482147217
aF0.30859987795352933
aF0.28669236862659453
aF0.5060980718135834
aF0.12567912781238555
aF0.33031765460968016
aF0.3202257789373398
aF0.6281724537611008
aF0.3070571186542511
aF0.29666767370700836
aF0.5258735393285752
aF0.5189409322738647
aF0.4180962219238281
aF0.42602362620830536
aF0.4410957791805267
aF0.35297287464141847
aF0.4126857594251633
aF0.3188645534515381
aF0.38691415321826933
aF0.3942264211177826
aF0.43374945521354674
aF0.5243430274724961
aF0.40024314975738523
aF0.5157147697210311
aF0.4722864359617233
aF0.2866054377555847
aF0.2145294576883316
aF0.47016061878204346
aF0.5168525619506836
aF0.4259584867954254
aF0.3989152767658234
aF0.529023610830307
aF0.3475521639585495
aF0.3415432937145233
aF0.360186861038208
aF0.38688714742660524
aF0.5666374492645264
aF0.4940836659669876
aF0.39258410716056824
aF0.6577944015264511
aF0.2927241605520248
aF0.4245518575906754
aF0.4746147698163986
aF0.4439495029449463
aF0.4313828202486038
aF0.5463905543088913
aF0.3837683789730072
aF0.4165392715930939
aF0.4891416741013527
aF0.5340741505622864
aF0.5293838646411896
aF0.33860468316078185
aF0.6250215064287186
aF0.4946559271812439
aF0.4732775169610977
aF0.4639546082019806
aF0.6569545534849167
aF0.6390589480400085
aF0.48165635800361634
aF0.529055483341217
aF0.4728648799657822
aF0.4974813972711563
aF0.5944392383098602
aF0.5200648173093796
aF0.5019405369758606
aF0.4574997301101685
aF0.49971435022354127
aF0.44011888837814334
aF0.6473125191926956
aF0.6537164542675018
aF0.6112741155624389
aF0.6571302000284195
aF0.49607728481292723
aF0.4246546766757965
aF0.6420608427524567
aF0.5475227466225624
aF0.5287851345539093
aF0.5993252387046814
aF0.5692913854122161
aF0.35609591329097745
aF0.5156054068803787
aF0.5791345573663712
aF0.42917478883266447
aF0.2813913074731827
aF0.37666432684659956
aF0.3131760821342468
aF0.3984105926156044
aF0.3496816837787628
aF0.5665538427829743
aF0.5333893235921859
aF0.3591729484796524
aF0.4752874082326889
aF0.4551710624694824
aF0.5260237237215042
aF0.5093992251157761
aF0.5371208591461182
aF0.5144265873432159
aF0.6284339373111725
aF0.2637972071170807
aF0.29428331542015074
aF0.4186497955322266
aF0.4268157757520676
aF0.29611929500102996
aF0.4556397081613541
aF0.3331883690357208
aF0.4409006389379501
aF0.5982008775472641
aF0.4183975427150726
aF0.5006198860406875
aF0.4317181679010391
aF0.5101010231971741
aF0.35992666697502135
aF0.5832068590521813
aF0.40056665635108946
aF0.4321051061153412
aF0.31845998096466066
aF0.6437244082689285
aF0.5263855805397034
aF0.2659647307395935
aF0.22786607670783995
aF0.46073076498508453
aF0.45630912667512896
aF0.4602890360355377
aF0.347888209939003
aF0.40870120346546174
aF0.418786306142807
aF0.5199221677780151
aF0.22878408133983613
aF0.2965152623653412
aF0.41374856090545653
aF0.39055759423971176
aF0.41295777934789657
aF0.48782816421985625
aF0.3140264909565449
aF0.34296491932868955
aF0.35747913527488706
aF0.4555121386051178
aF0.5680169634819031
aF0.5061321499347686
aF0.45954485952854157
aF0.4218769943714142
aF0.5166276729106903
aF0.4744927620887756
aF0.3863667378425598
aF0.5521634521484375
aF0.544710746049881
aF0.5138863685131073
aF0.2702374321222305
aF0.45991097736358644
aF0.4856102342605591
aF0.4470098839998245
aF0.35666270697116853
aF0.49967141008377075
aF0.4071783617734909
aF0.561715509057045
aF0.33465626883506777
aF0.5718097555637359
aF0.2780318534374237
aF0.5274037748575211
aF0.21073709213733674
aF0.33925392663478854
aF0.27235394752025605
aF0.5144190318584442
aF0.42649350738525393
aF0.29816828048229216
aF0.3212711687088013
aF0.46475213682651517
aF0.4755020076036453
aF0.3557562915086746
aF0.10513600206375122
aF0.24464639163017274
aF0.28825820589065554
aF0.519841220498085
aF0.32364906549453737
aF0.27903109502792356
aF0.37652835047245026
aF0.34709972226619723
aF0.43842458093166353
aF0.5395511914491653
aF0.45959635108709335
aF0.24809427678585053
aF0.40690311563014986
aF0.2909356272816658
aF0.24763127934932708
aF0.16813841319084166
aF0.410808052778244
aF0.43887563502788546
aF0.40357917308807373
aF0.37030937665700914
aF0.2769671492576599
aF0.3092363106012344
aF0.15818882060050965
aF0.2829160625934601
aF0.3231387655735016
aF0.14992386400699614
aF0.3507428126335144
aF0.04435334438085556
aF0.3868881278038025
aF0.3422864017486572
aF0.21852321368455888
aF0.3050436123609543
aF0.5220965201854706
aF0.4871008322238922
aF0.3406094057559967
aF0.18410425734519958
aF0.4989567017555237
aF0.41363446128368375
aF0.33741621792316434
aF0.2887972991466522
aF0.36617268264293673
aF0.08849971950054168
aF0.3129249130487442
aF0.3681555643081665
aF0.318051029920578
aF0.4011406445503235
aF0.3356164926290512
aF0.4122347843647003
aF0.2690760552883148
aF0.22911175429821015
aF0.3112535008192062
aF0.3514123342037201
aF0.16632577872276305
aF0.1372774051427841
aF0.40036394965648653
aF0.23407291913032532
aF0.29582734203338623
aF0.3362425239086151
aF0.17600308084487915
aF0.3724275951385498
aF0.2079684479236603
aF0.33102357161045076
aF0.1740715298652649
aF0.25959531009197234
aF0.1833075724840164
aF0.31431537461280823
aF0.3046225550174713
aF0.18840016293525697
aF0.3840925430059433
aF0.20472536301612854
aF0.2583373607397079
aF0.1648025780916214
aF0.2782285709381104
aF0.17079376363754273
aF0.4102424349784851
aF0.15537265419960022
aF0.35563092613220215
aF0.4866123822927475
aF0.4493188410997391
aF0.27163329160213473
aF0.3179129421710968
aF0.30367102324962614
aF0.3990489755868912
aF0.45012353563308716
aF0.31229545652866364
aF0.33974807608127594
aF0.11774102771282197
aF0.08413391178846359
aF0.4736657339334488
aF0.3239765582084656
aF0.4023680241107941
aF0.29035841941833496
aF0.35223118829727174
aF0.43908477389812467
aF0.3512642179727554
aF0.44446263372898104
aF0.48795749974250796
aF0.4257290760278702
aF0.38156853199005125
aF0.2945639145374298
aF0.2635147180557251
aF0.39511266577243803
aF0.4465015357732773
aF0.4684950921535492
aF0.47265212690830233
aF0.23494003629684448
aF0.5623940110206604
aF0.46559763538837434
aF0.3584093813896179
aF0.4955528026819229
aF0.6159522360563279
aF0.5726440672874451
aF0.39054292964935305
aF0.48266478967666626
aF0.45796190214157106
aF0.5868594937324524
aF0.5965862764120102
aF0.43706473577022553
aF0.5187733444571495
aF0.5415123357772827
aF0.35986221528053286
aF0.35111060094833374
aF0.43071041321754455
aF0.4178724988102913
aF0.33746718418598176
aF0.43724075877666474
aF0.598517130613327
aF0.5266888720989227
aF0.5630604965090752
aF0.6221538823843002
aF0.44444140303134916
aF0.41164627015590666
aF0.5152453654110432
aF0.3907499749660492
aF0.45220896911621095
aF0.21202838104963304
aF0.7172249752283096
aF0.3470206277370453
aF0.48863274717330935
aF0.3987940945625305
aF0.41479863452911375
aF0.3085135102570057
aF0.48734489500522615
aF0.510699113368988
aF0.4151027470827103
aF0.41502077651023866
aF0.38712190437316896
aF0.48530471003055575
aF0.4942757750749588
aF0.4496554429531097
aF0.4721883525848389
aF0.4278848484754562
aF0.47791625702381135
aF0.6930195848941803
aF0.3485747538805008
aF0.3496300296783447
aF0.4246776646375656
aF0.40013005638122556
aF0.3621060893535614
aF0.501820417881012
aF0.5719767444133759
aF0.7211964538693428
aF0.5211531488895417
aF0.4803906475305557
aF0.637358147740364
aF0.5190576479434967
aF0.4698283489942551
aF0.5660996080636979
aF0.57536079287529
aF0.3611580950021744
aF0.5037093907594681
aF0.3805147953033447
aF0.5994039890170098
aF0.5894295711517334
aF0.5936477084159851
aF0.399197930932045
aF0.41238998842239377
aF0.4727018085718155
aF0.46974922394752505
aF0.6082073263525963
aF0.5235031863451004
aF0.5068368018865586
aF0.554399202823639
aF0.4309799317121506
aF0.5466673469543457
aF0.4514342581033707
aF0.5603807147741318
aF0.31483170998096466
aF0.45916248369216917
aF0.37449557876586914
aF0.5369216247797012
aF0.5009275171756744
aF0.33423003840446475
aF0.48959344482421874
aF0.44609195601940155
aF0.2239672899246216
aF0.4152727692723274
aF0.4623590898513794
aF0.4516118505001068
aF0.2960673528909683
aF0.3025454001426697
aF0.22251206624507905
aF0.4545641314983368
aF0.5556522604227067
aF0.3073938226699829
aF0.4524106297492981
aF0.27250370526313783
aF0.28115822792053224
aF0.4989934622049332
aF0.5127487761974334
aF0.50251942050457
aF0.45735132551193236
aF0.3919036787748337
aF0.34074341255426405
aF0.3665755249261856
aF0.5858402190208435
aF0.45062709164619447
aF0.36561737418174745
aF0.480869859457016
aF0.4050456840991974
aF0.3646123994588852
aF0.2215045353770256
aF0.35469173491001127
aF0.34108226430416105
aF0.39592459762096405
aF0.4449955953359604
aF0.24122708797454834
aF0.39039592576026916
aF0.35288125902414325
aF0.42208205854892733
aF0.3388873211145401
aF0.45065900814533233
aF0.3789099522829056
aF0.20957549464702607
aF0.5666341557502746
aF0.6457897326946258
aF0.35173665356636047
aF0.37564420711994173
aF0.4863757138848305
aF0.5358438649177552
aF0.3970493267774582
aF0.5112025417089462
aF0.3708036119937897
aF0.703131467461586
aF0.5032718535661698
aF0.34735427737236024
aF0.5519790849685668
aF0.4739621421098709
aF0.4984231308698654
aF0.43597882556915285
aF0.4379739680886269
aF0.6112827070951462
aF0.4618801647424698
aF0.3036220525503159
aF0.2891181694865227
aF0.48471514058113097
aF0.55748537504673
aF0.38130887544155123
aF0.43410142183303835
aF0.38647573471069335
aF0.49133194231987
aF0.398319344997406
aF0.4235088028311729
aF0.5837377671003342
aF0.5726412080526352
aF0.36835415577888486
aF0.3387565093040466
aF0.5504983328580856
aF0.47228306341171267
aF0.5471749013662338
aF0.4267434936761856
aF0.4967741178274155
aF0.6618600207567215
aF0.613824769616127
aF0.4330962700843811
aF0.5579516669511795
aF0.4516723002195358
aF0.5963994266986847
aF0.8018907132148743
aF0.5970748056173325
aF0.5699693441390992
aF0.36745433366298674
aF0.571012968659401
aF0.5579532876014709
aF0.5693459439277649
aF0.4228315304517746
aF0.6782914202213287
aF0.4298405669927597
aF0.5282774815559387
aF0.45451766407489774
aF0.5829232126474381
aF0.5966762809753418
aF0.5178007916212082
aF0.5420605495572091
aF0.5785103245973587
aF0.6958145415782928
aF0.6611754233241082
aF0.5505091911554336
aF0.4624380061626434
aF0.6118024314641952
aF0.6660846149921418
aF0.5790177286863327
aF0.5454726645946503
aF0.47166130459308625
aF0.5259159859418869
aF0.33125783908367157
aF0.5806274082660675
aF0.5511797713041305
aF0.5384959845542908
aF0.6746085982322693
aF0.6575425208806992
aF0.6452273632884026
aF0.5773544570207596
aF0.5923108195066452
aF0.5693746113777161
aF0.5398663018345833
aF0.6266916635036468
aF0.5710610176324844
aF0.5989229911565781
aF0.591455602645874
aF0.6007096484899521
aF0.548412230849266
aF0.7002504725456238
aF0.5233289129734039
aF0.520212072134018
aF0.5645745992660522
aF0.6284319057464599
aF0.6731718547344208
aF0.5860708293914795
aF0.5835205502510071
aF0.4725493041276932
aF0.42910683882236483
aF0.531332638502121
aF0.5515039451122284
aF0.6280439705848694
aF0.5678968992829323
aF0.5530755625963211
aF0.4898756896257401
aF0.6251563775539398
aF0.4631840648651123
aF0.6731159881353378
aF0.4693462603092194
aF0.520636850476265
aF0.7138044279813767
aF0.5910370879173279
aF0.5257323726415634
aF0.5259084687232971
aF0.562136917591095
aF0.6335876327157021
aF0.5800193322896957
aF0.7522228957414627
aF0.47598349571228027
aF0.6846481218338013
aF0.834908632159233
aF0.7209684094190597
aF0.6678728642463684
aF0.588528972029686
aF0.6626222077608108
aF0.6827357330322266
aF0.6435034207701683
aF0.5422977569103241
aF0.7444992333054542
aF0.4627064297199249
aF0.6130747488737106
aF0.6693436703681945
aF0.5186822667121888
aF0.6949236363172531
aF0.6250746192932128
aF0.6428766793012619
aF0.7459110573530198
aF0.5856205550730228
aF0.5473722295761109
aF0.5433024573326111
aF0.565006425023079
aF0.6919777653217316
aF0.5657617772817611
aF0.6577093639373779
aF0.6608410229682923
aF0.6082534996271134
aF0.7448702031373977
aF0.6708824360370635
aF0.6145905351638794
aF0.459668750166893
aF0.6557937867641449
aF0.706397540807724
aF0.7207880663871765
aF0.7042616255283356
aF0.8220515277385712
aF0.7358461931943894
aF0.6347595603466034
aF0.6961017636060715
aF0.6446803320646286
aF0.6425480194091797
aF0.7166119066476822
aF0.7451087391376495
aF0.7042837405204773
aF0.8939483398795128
aF0.6625782444477081
aF0.6600399436950684
aF0.6187160816192627
aF0.7158602949380874
aF0.6546997058391572
aF0.6277756390571594
aF0.800254998922348
aF0.6999992741346359
aF0.8324491735696793
aF0.5894072481393814
aF0.6299792298078537
aF0.7696706731319427
aF0.7771187702417374
aF0.6661484894752503
aF0.7968448734283448
aF0.6786706454753876
aF0.8136389856338501
aF0.7871858514547349
aF0.793443706035614
aF0.7123853051662445
aF0.7615343726873398
aF0.7793447477817536
aF0.6448432534933091
aF0.7862021149396896
aF0.6689239056110382
aF0.5483946183919907
aF0.6929124672412872
aF0.8614831068515778
aF0.7324493482112885
aF0.6448682577610015
aF0.5842973170280457
aF0.787365348815918
aF0.7548319467306137
aF0.7001402915716172
aF0.6422706050872803
aF0.7028410271406174
aF0.7849654508829117
aF0.7770352013111115
aF0.9668894399404526
aF0.8636271954774857
aF0.7051375883817673
aF0.6451723855733872
aF0.8693547580242157
aF0.7042040785551071
aF0.9154458928108216
aF0.6855136134624481
aF0.709336568236351
aF0.7604135358333588
aF0.844396315574646
aF0.7296338859200477
aF0.7751402863264084
aF0.7367190402746201
aF0.8368095039129257
aF0.736404676437378
aF0.9089879629611969
aF0.9450429275035858
aF0.8675781676769256
aF0.9581888257265091
aF0.7229617302417755
aF0.6856445825099945
aF0.8994075303077698
aF0.7707427279949188
aF0.9051757614612579
aF0.6812015902996064
aF0.8681386761665344
aF0.9305003508031369
aF0.9031494705677032
aF0.6937017087936401
aF0.9676255576610565
aF0.9814239115715027
aF0.8812558476924897
aF0.8587020206451416
aF0.9593385078907013
aF0.81961957603693
aF0.7403804025650025
aF0.8501656557321549
aF0.7376110944747925
aF0.8737151905298233
aF0.8591508084535598
aF0.8635638189315796
aF0.9136286234855652
aF0.8722296234369278
aF0.8217027832269669
aF0.8162096436023712
aF0.9587262496948242
aF0.9247267615795135
aF0.9387147309780121
aF1.042469059228897
aF0.640598073720932
aF0.9765707801580429
aF0.9010627113580704
aF0.8141643187999725
aF1.0308996794223786
aF0.8913365436792373
aF0.7795349330902099
aF0.9049965053796768
aF0.9692584609985352
aF0.8844037364721298
aF1.0492697582244872
aF0.7537116450071335
aF0.9460351438522339
aF0.8704102741479873
aF0.7425328466892243
aF0.9230883131027222
aF1.0196722340583801
aF0.8257334282398224
aF0.6663165338039398
aF0.8993008177280426
aF0.8233678891658783
aF0.9121683189868927
aF0.9498109943866729
aF0.8858739892244339
aF0.8198967483043671
aF0.9317670447826385
aF0.7836501916646957
aF0.8704827135801315
aF0.9330542752742768
aF0.8624895679950714
aF0.9704377051591874
aF0.8366944794654846
aF0.9552839231193065
aF0.8963459932804108
aF0.9081291298866272
aF0.9638621340990067
aF0.8438838793039322
aF0.8564180068969727
aF0.9481899276971817
aF0.9020302124023437
aF0.9965032521486282
aF0.8324677112102509
aF0.8137438361644744
aF0.8204803881049156
aF0.7918015625476837
aF0.8492278572320938
aF1.0112216427326202
aF0.9233776218891144
aF0.939197868347168
aF0.8704509081840515
aF0.9242022895812988
aF0.844778746008873
aF0.8156738657951355
aF0.8957415045499801
aF0.9137607645988465
aF0.9239618330001831
aF0.9772469882965088
aF0.8532175343036652
aF1.0253567306995393
aF0.8713602656126023
aF0.9076400656700134
aF1.0191556794643402
aF0.8001715791225433
aF0.844850760936737
aF0.999987887263298
aF0.994074888586998
aF0.8864636716842651
aF0.8569887391328812
aF0.9873743236064911
aF1.0095770320892334
aF0.8947365993261337
aF0.7588141558170318
aF0.7926514673233033
aF0.8208110628128051
aF0.9670944685935974
aF0.9016030476093292
aF1.02860000705719
aF0.9546162509918212
aF1.110819491147995
aF0.9762675106525421
aF1.0239554131031037
aF0.8639353566169738
aF0.9065115456581115
aF1.0489309828281403
aF0.8899324687719345
aF0.9509920909404754
aF1.0534140701293946
aF0.9402275565862656
aF1.0203926372528076
aF0.9553447079658508
aF0.9540813384056092
aF0.9853140187263488
aF0.9076043848991394
aF1.0034234399795532
aF0.8378523718118668
aF0.9661304799318313
aF1.0298208906650543
aF1.085257759332657
aF0.8675630753040313
aF0.8476861952543259
aF0.9623296091556549
aF0.9992746599912643
aF0.9534688737392426
aF0.9289446294307708
aF0.812409464597702
aF0.9462632262706756
aF0.9049721221923828
aF0.941052232503891
aF0.915876284480095
aF1.0308123264312745
aF0.8826318457126617
aF0.9710509417057037
aF0.9048561676740646
aF1.0282306357622146
aF1.054980149626732
aF1.044208884716034
aF0.9751709547042847
aF1.117297805786133
aF0.8572848243713379
aF0.9857117922306061
aF1.1409357142448426
aF1.0021741540431977
aF0.9126213839054108
aF0.9739011261463165
aF0.9561920897960663
aF0.992140257269144
aF1.0903761891126633
aF1.0710382399559022
aF1.0934314687252045
aF1.031881726861
aF0.9183489236831665
aF0.8659814006090164
aF1.0517971251010896
aF0.9353337342739105
aF0.9095578808784485
aF1.0240172963142395
aF0.994372859120369
aF0.8528921794891358
aF1.2812433044910432
aF0.8302478966712952
aF0.9386630008220672
aF0.91308045566082
aF0.9996777279376984
aF1.0003230611085892
aF0.9515122103691102
aF0.961303118467331
aF0.9139166767597199
aF1.0200425477027892
aF1.0105418841838836
aF1.0197070846557617
aF0.9859960811138153
aF0.8687363370656968
aF1.1086856408119201
aF0.8704555759429932
aF0.9330851693153381
aF0.9998818799257279
aF0.9402805545330047
aF0.8927415409088135
aF1.0454049446582794
aF0.9247078256607055
aF1.0902389187812804
aF1.0302732510566712
aF1.026902195930481
aF1.0554087985754013
aF1.008466959953308
aF0.9310423129796982
aF0.8789833551645279
aF0.9691220798492431
aF0.8245241079330444
aF0.9905666527748108
aF1.1092679438591004
aF0.9293028811216354
aF0.980916468501091
aF0.9832982485294341
aF1.106508276462555
aF1.0812998802661895
aF1.0359776434898376
aF0.9319368660449981
aF0.8390696462392807
aF0.7853516156673431
aF1.078474583864212
aF1.005980578303337
aF0.9993295279741288
aF0.951073741197586
aF0.8354333515167236
aF1.0268900110721588
aF0.9512772617340088
aF1.0647687205076217
aF1.0655427820682526
aF1.0125571620464324
aF0.9578874709606171
aF0.9816296755075454
aF0.9975212917327881
aF1.0496871876716614
aF0.9171703662872315
aF0.8747917308807373
aF0.9623661389350892
aF0.9461175199747086
aF0.8572183821201325
aF1.057958947658539
aF0.9185788476467133
aF0.759246280670166
aF0.9324233932495117
aF0.9404190044403076
aF1.0249862691164018
aF0.9396873910427094
aF0.9675902144908906
aF0.8327825071811676
aF0.8585941743850708
aF0.9280950661897659
aF0.9637884974479676
aF0.9985047101974487
aF1.0749020450115203
aF1.0039521762132644
aF0.8820806245803833
aF0.9642373436689377
aF1.0157978134155274
aF0.8881896722316742
aF0.9721444954872132
aF0.969865336894989
aF0.9861699998378753
aF1.0203207087516786
aF1.0087986456155777
aF0.9520491931438446
aF0.9696933205127716
aF0.9961349883079529
aF1.0160440094470977
aF1.1659577296972274
aF0.9630823810100555
aF1.0410287618637084
aF1.0287431874275208
aF1.1139001247882843
aF0.935851794719696
aF0.9911629531383515
aF0.9518745720386506
aF0.8621105352640152
aF0.8861773071289063
aF1.1474451296329498
aF0.896503711938858
aF1.1092320125102997
aF1.0942884726524353
aF1.0180499148368836
aF0.9509257196187973
aF1.0487930299043655
aF0.937173643231392
aF0.9088934500217438
aF1.0862895946502686
aF0.9784000787734985
aF1.014683295249939
aF0.9894891508817673
aF0.9504469125270844
aF1.0464449093341828
aF0.8772160212993622
aF0.8318406140804291
aF1.0936801686286926
aF1.0745887048244476
aF1.0279442956447602
aF1.0486469641327858
aF0.8614349510669709
aF0.8512826492786407
aF0.9098356238603592
aF1.006355268239975
aF1.0922695515155791
aF0.7886721346378326
aF1.1221060888767243
aF0.9104998407363891
aF1.0061134338378905
aF0.9820564231872558
aF0.8754892699718475
aF0.9244569070339202
aF1.0461063921451568
aF0.9220772936344147
aF1.0206086653470994
aF0.9298908709287643
aF0.9142005276679993
aF1.0960804553031922
aF0.9869851686954498
aF1.1136070969104768
aF0.9794394600391388
aF1.0536877957582473
aF0.9629579945802689
aF0.9852773258686066
aF0.9706120002269745
aF0.9317599842548371
aF1.066286599636078
aF0.9523329603672027
aF0.8389769368171692
aF0.9955930635929108
aF0.9168691177368165
aF1.1881132605075837
aF1.02492831158638
aF0.9865153439044952
aF1.0096748189926148
aF1.0725758383274078
aF0.9481662130355835
aF0.9552804412841797
aF1.06519193315506
aF1.0914814710617065
aF1.0888101331591606
aF0.9178456699848175
aF0.9490636277198792
aF1.0847518966197967
aF1.0111058890223503
aF1.1273259527683257
aF0.9458311067819596
aF0.9160723893642425
aF1.0575819134712219
aF0.9780582035779953
aF0.9592928590774537
aF1.0914223110675811
aF0.9311264173984528
aF1.0075265816450119
aF1.01332284116745
aF1.0128764708042144
aF0.8371128880977631
aF0.9916782751083374
aF1.078100038766861
aF1.1209867134094238
aF1.0315510351657868
aF0.9190571215152741
aF0.9374928972721099
aF1.0702446622848512
aF0.973461608171463
aF1.1458499689102173
aF1.0595781500339507
aF0.7292063844203949
aF1.1335618826895952
aF0.8798223887085914
aF0.9771485323905945
aF0.9893461898565292
aF0.9585673730373383
aF1.0033275184631347
aF1.0090743446350097
aF1.0112348318099975
aF1.1036056714057922
aF1.0316398153305053
aF0.9968437075614929
aF0.9271130571365357
aF0.6812988178730011
aF0.9507961702346802
aF1.1007115924358368
aF0.9164562149047851
aF0.9001361565589905
aF1.0340418877601623
aF0.9128404126167298
aF1.0010845423936845
aF0.7955796480178833
aF0.9662716993093491
aF0.9993993644714355
aF1.0099332253932953
aF1.017486021876335
aF1.008947337627411
aF1.1021056535243987
aF1.0222078881263732
aF0.9479797894954681
aF0.9568355889320374
aF1.1043713428974151
aF1.0304191114902497
aF1.0017059717178345
aF0.9809174168109894
aF0.9723198614120483
aF0.8980338129997253
aF1.1021503794193268
aF0.9406761796474457
aF0.9889478944540023
aF0.9720392830371857
aF0.9820289397239685
aF1.036713059067726
aF1.0160697597265242
aF0.9603788962364197
aF0.9359128469228745
aF1.0745363755226136
aF0.9790943548679352
aF0.9377842432260514
aF1.0526509144306182
aF0.9864965641498565
aF0.8599446456432343
aF1.0549267974495888
aF0.9761587700843811
aF0.806501190662384
aF0.9314580028057098
aF0.8566961963176727
aF0.9447407143115998
aF0.9340482244491577
aF1.0050432288646698
aF0.902172917842865
aF1.1121278455257415
aF0.985780851483345
aF0.9038138937950134
aF1.030844152212143
aF0.97345521235466
aF1.012031111240387
aF0.8785683038234711
aF1.0722563824653626
aF1.0029909164905548
aF0.942270491361618
aF1.0450615899562836
aF0.8547900354862213
aF0.9922128024101258
aF1.0193467743396758
aF1.1035212182998657
aF1.0405532705783844
aF0.9192339470386505
aF1.141397047162056
aF1.0133482618331908
aF0.9498035811185837
aF0.8619960348606109
aF1.0730659322738647
aF0.9988859837055206
aF1.0259836356639862
aF1.0118187656402589
aF1.1185137507915497
aF1.0388739812374115
aF0.8621216666698456
aF1.0937355526685715
aF0.9690414826869964
aF0.9050176222324371
aF1.1375923430919648
aF0.9231010158061981
aF0.9334370157718659
aF1.1103010873794557
aF0.8636414831876755
aF0.9165231804847718
aF0.952540358543396
aF1.0148134405612945
aF0.9595924270153046
aF1.0312375657558441
aF0.938382875919342
aF0.9935125544071197
aF1.157464919090271
aF1.1032172961235047
aF0.98241144657135
aF1.0092691893577577
aF1.0602222375869752
aF0.9989498538970947
aF1.0651294199228287
aF1.0357465553283691
aF0.9113585176467895
aF1.0027291066646575
aF1.060056291103363
aF1.0625536396503448
aF0.907045717716217
aF0.9936313214302063
aF1.139780933737755
aF1.0980131999254226
aF1.0505010585784913
aF1.0771166824102403
aF0.9834493179321289
aF0.8874020853042602
aF1.0173574491739272
aF1.0519188587665558
aF1.042392519235611
aF0.8592162172794342
aF1.000681421995163
aF1.0480945568084716
aF1.0168555023670196
aF0.9791739549636841
aF0.9973811988830567
aF0.9336413624286651
aF0.9338707158565521
aF0.9999235706329346
aF1.0346810479164124
aF0.9115698437690735
aF1.2009266179800033
aF1.1023994661569596
aF0.9133870010375976
aF1.0108907437324524
aF1.053778422355652
aF1.0769302313327789
aF1.0821023137569428
aF1.1674870326519013
aF1.1783705186843871
aF1.0376388208866119
aF1.0824405720233918
aF1.0473799011707305
aF0.9759244611263275
aF1.0524793496131897
aF1.0951925871372223
aF1.1858756639957428
aF1.0073778623342513
aF1.1764071221351624
aF1.1262761781215667
aF1.037154976963997
aF1.0703935127258302
aF1.0839400568008424
aF0.8568945116996766
aF0.9738617174625397
aF0.97731977725029
aF0.9697061092853546
aF0.9370975116491318
aF1.0548112630844115
aF0.9774057867527008
aF1.1175262362957001
aF0.9883228746652604
aF0.9912287833690643
aF1.0519627842903136
aF1.078210960149765
aF1.0761203947067262
aF1.0773965369462968
aF0.9928110117912292
aF0.9150220806598663
aF0.9133933284282685
aF0.9230013687610626
aF0.9763052968978881
aF1.1381958231925964
aF0.9653253982067108
aF1.0369642748832704
aF1.1862579333782195
aF1.0813566640615464
aF1.1244100666046142
aF1.0587819395065308
aF1.0686570081710816
aF1.226144851922989
a.