(lp0
F-5.098616515159607
aF-1.415208403468132
aF-0.9872657086849213
aF-1.0064779657125473
aF-0.9528074067831039
aF-0.9266852006912232
aF-1.0006785700917245
aF-0.8331589755415917
aF-0.8067328408956528
aF-1.0673013826608657
aF-0.6671730814278126
aF-0.7920129628181457
aF-0.8107716402113437
aF-0.7678915246725082
aF-0.7449373022466897
aF-0.9107100906968116
aF-0.9522273645699024
aF-0.555704264819622
aF-0.5521255978941917
aF-0.7472406623363494
aF-0.43496055209636686
aF-0.3308884972333908
aF-0.8727266727089882
aF-0.40121598279476167
aF-0.8878679109811782
aF-0.46978547203540805
aF-0.8068272513151169
aF-0.9219845497608185
aF-0.47736592328548433
aF-0.43299647033214567
aF-0.4518898035287857
aF-0.43367811727523803
aF-0.4662163449525833
aF-0.33049131333827975
aF-0.7416134910583496
aF-0.4274167873859406
aF-0.36211614751815796
aF-0.3871364332437515
aF-0.24531227588653565
aF-0.3294561207294464
aF-0.3734330954551697
aF-0.37121481335163115
aF-0.38661787259578706
aF-0.4627972948551178
aF-0.3632869386672974
aF-0.12239811921119689
aF-0.192226099640131
aF-0.4239697469472885
aF-0.2077554659843445
aF-0.2317840718626976
aF-0.257607950925827
aF-0.0647247428894043
aF-0.2837288757562637
aF-0.24639892637729643
aF-0.1353829745054245
aF-0.21665332317352295
aF-0.19587469571828842
aF-0.1858491621017456
aF-0.3084758914709091
aF-0.0031457388401031493
aF0.0028339266777038575
aF-0.11340843558311463
aF-0.3334576646089554
aF-0.10740080511569977
aF-0.0748126425743103
aF-0.18789519953727724
aF0.09399846255779266
aF-0.3453502886295319
aF-0.13651148426532744
aF0.08199497842788696
aF-0.20693971633911132
aF-0.17043013447523117
aF-0.09296440851688385
aF-0.034893006801605224
aF-0.11689509689807892
aF-0.07171042567491531
aF-0.026521212458610534
aF-0.08204268765449524
aF0.08886074590682984
aF0.00974644410610199
aF-0.21911387372016908
aF0.008870962381362915
aF-0.1099221167564392
aF-0.1509760400056839
aF-0.15665983402729033
aF-0.07175981545448304
aF0.15719037806987762
aF-0.00289646577835083
aF0.04844648134708405
aF-0.06492963993549347
aF0.1505075008869171
aF0.14631377387046815
aF0.25980200731754305
aF-0.03421428298950195
aF0.11917832565307618
aF0.2943285668492317
aF0.09756727504730224
aF0.03044102895259857
aF0.1352073541879654
aF0.14171232724189758
aF0.02678353500366211
aF-0.024399640679359437
aF0.10530246126651764
aF0.07759674203395843
aF0.08224486649036407
aF0.09267078804969787
aF0.03871622347831726
aF0.24721775460243225
aF0.4338329186439514
aF0.19330305588245392
aF0.1401340445280075
aF0.06589282321929932
aF-0.053058210253715515
aF0.14761993110179902
aF0.30969437313079834
aF0.3929078052043915
aF0.38143710446357726
aF0.3393283351659775
aF0.14267692053318023
aF0.25353672277927397
aF0.24631984734535217
aF0.129463747382164
aF0.1893424768447876
aF0.22632266449928284
aF0.3391582990884781
aF0.45342531776428224
aF0.3387657110691071
aF0.21805939173698424
aF0.42034223502874374
aF0.36164887821674346
aF0.06932714557647705
aF0.027427626609802247
aF0.28296296441555024
aF0.2497652884721756
aF0.2698897392749786
aF0.3146647026538849
aF0.3461792539358139
aF0.16357781505584718
aF0.2586605293750763
aF0.17981539130210877
aF0.3352507302761078
aF0.16829899716377258
aF0.16378688967227936
aF0.30315059173107145
aF0.08905563950538635
aF0.2858067854642868
aF0.265254221200943
aF0.3059434648752212
aF0.19737166833877565
aF0.16439034605026245
aF0.30395410388708116
aF0.3261834421157837
aF0.0842833878993988
aF0.2862975554466248
aF0.2973180978298187
aF0.24088827252388
aF0.19198633992671968
aF0.19896027433872224
aF0.11121186518669128
aF0.4589903694391251
aF0.14752092707157136
aF0.34248436260223386
aF0.3842105050086975
aF0.3342624228000641
aF0.27646504521369936
aF0.41658140790462495
aF0.1486028883457184
aF0.2838083188533783
aF0.3800332791805267
aF0.3729668390750885
aF0.16254726541042328
aF0.2059181022644043
aF0.2645158871412277
aF0.5298755037784576
aF0.4060757908821106
aF0.30281486177444455
aF0.3759714765548706
aF0.5239838584661484
aF0.45736375892162323
aF0.3419571295976639
aF0.27482138049602506
aF0.44765847659111024
aF0.17005390679836274
aF0.27579853546619415
aF0.270626580119133
aF0.14506233000755311
aF0.23890270578861236
aF0.256016987323761
aF0.18936011230945587
aF0.49590352857112885
aF0.47855116438865664
aF0.27825719606876376
aF0.42234711664915087
aF0.3391477617025375
aF0.3872368609905243
aF0.4378073537349701
aF0.38099952667951587
aF0.3597646827697754
aF0.45468338429927824
aF0.13415672999620437
aF0.5242464495897293
aF0.2365132805109024
aF0.49247896790504453
aF0.1848956274986267
aF0.2956111205816269
aF0.38836820983886716
aF0.4049546872377396
aF0.5179886472225189
aF0.407714408993721
aF0.1815945986509323
aF0.20786382734775544
aF0.3502043125629425
aF0.23446350216865539
aF0.3234244183301926
aF0.3779441043138504
aF0.6457128068208694
aF0.250021492600441
aF0.385754771232605
aF0.4722340588569641
aF0.24511110225319863
aF0.5871691159009933
aF0.6274763878583908
aF0.2666282797455788
aF0.25359939962625505
aF0.27237304842472077
aF0.41068599379062654
aF0.24386580145359038
aF0.3496799027919769
aF0.3448127576112747
aF0.4309147841930389
aF0.390988627910614
aF0.3066994729042053
aF0.17024604988098144
aF0.6070138429403305
aF0.4899190834760666
aF0.5569934319257737
aF0.4806169946193695
aF0.5642538402080536
aF0.39335219037532804
aF0.4394420337677002
aF0.27832914400100706
aF0.43066264712810515
aF0.461013171672821
aF0.4406182873249054
aF0.1594314135313034
aF0.48880426919460296
aF0.41128037714958193
aF0.4264433890581131
aF0.5017744491100311
aF0.45779685258865355
aF0.2532429382801056
aF0.2010900294780731
aF0.464367978811264
aF0.24821472519636154
aF0.3469600166082382
aF0.5423461053371429
aF0.5866938675642014
aF0.41394840395450594
aF0.3145524996519089
aF0.27779081380367276
aF0.42318443763256075
aF0.43110742259025575
aF0.3362854505777359
aF0.06217648327350617
aF0.34893145084381105
aF0.18357375252246858
aF0.38712009048461915
aF0.4325081686973572
aF0.22869605052471162
aF0.44836832022666934
aF0.3690476557016373
aF0.43826809430122377
aF0.3095488175153732
aF0.11350635850429534
aF0.23142697036266327
aF0.40247122406959535
aF0.23216420257091522
aF0.2576937953233719
aF0.15342906761169434
aF0.39675205713510514
aF0.23849639928340913
aF0.39956273579597473
aF-0.09079030382633209
aF0.29381974816322326
aF0.3063238500356674
aF0.2273561968803406
aF0.1351138333082199
aF0.1869146581888199
aF0.22340165519714356
aF0.3461025775671005
aF0.2107818021774292
aF0.19425269746780396
aF0.28725674736499784
aF0.22179102861881256
aF0.10757288610935212
aF0.23207080578804015
aF0.3123505833745003
aF0.26522021913528443
aF0.24525742733478545
aF0.2840137156844139
aF0.10239152419567109
aF0.35940803623199463
aF0.39884261882305144
aF0.18116208708286285
aF0.35039567494392393
aF0.33303597635030746
aF0.25806850802898407
aF0.12706837928295137
aF0.16412861394882203
aF0.2898372242450714
aF0.15043168485164643
aF0.2550957849025726
aF0.2608544944524765
aF0.16639790338277816
aF0.28605250191688536
aF0.3884345012307167
aF0.06573812520503998
aF0.13841259050369262
aF0.3751262473464012
aF0.15211655974388122
aF0.17627997875213622
aF0.32010241723060606
aF0.1617523925304413
aF0.2333375369310379
aF0.1904614543914795
aF0.2170988450050354
aF0.2055735807418823
aF0.1077954649925232
aF0.1703365819454193
aF0.06687798017263412
aF0.1453644567131996
aF0.06905822360515594
aF0.20441429233551026
aF0.19348737633228302
aF0.20387535738945006
aF0.04937896883487702
aF0.1973357890844345
aF0.05448202538490295
aF0.061904610633850096
aF0.0648187165260315
aF0.09550757956504821
aF0.11478871750831604
aF0.16463946110010147
aF0.13192982339859008
aF0.0954007431268692
aF0.15567003226280213
aF0.09630784845352172
aF0.2886973193883896
aF0.28431037747859955
aF-0.03712966942787171
aF0.16423515456914903
aF0.19964707815647126
aF0.05112133288383484
aF0.16876486700773238
aF0.12006370711326599
aF0.07469222807884217
aF0.19246213841438292
aF0.13776070189476014
aF0.4212586077451706
aF0.38593887531757354
aF-0.030668286561965942
aF0.05552738833427429
aF0.13247784411907196
aF0.20957740211486817
aF0.03808562982082367
aF0.04450884974002838
aF0.010291557490825652
aF0.11438195252418518
aF0.10729163932800292
aF-0.002531566858291626
aF0.05290828204154968
aF0.07961310112476348
aF0.1349179449081421
aF0.003703335523605347
aF-0.018891014337539674
aF0.10828010547161103
aF-0.19010303503274917
aF-0.02479972553253174
aF-0.03913513779640198
aF-0.07020445346832276
aF0.2255325539112091
aF0.2205661563873291
aF0.03814156520366669
aF0.10056933486461639
aF0.26160296618938444
aF0.043489495158195494
aF-0.2464979419708252
aF-0.15234710037708282
aF0.12210488915443421
aF-0.08166936051845551
aF-0.10241611588001251
aF0.11193385529518128
aF-0.18957217836380005
aF0.0482612167596817
aF0.10929546165466308
aF0.06850669288635254
aF0.059959088563919065
aF0.09260045897960663
aF-0.027768340229988097
aF0.000878152847290039
aF0.059949667096138
aF0.13362839162349702
aF0.2663781515359879
aF0.16192303669452668
aF0.14415825259685516
aF0.11365738368034363
aF0.05636611366271973
aF0.10411532878875733
aF-0.14967799055576325
aF0.07636873984336853
aF0.06057904839515686
aF-0.20506595492362975
aF-0.02030587041378021
aF0.07962760388851166
aF0.09411607420444489
aF0.10750980424880982
aF0.13248784852027892
aF0.0744803112745285
aF-0.069279243350029
aF0.14316469359397888
aF-0.16664986336231233
aF-0.054733754158020016
aF-0.1576714777946472
aF-0.12260425341129302
aF-0.15443591517210006
aF0.08824371099472046
aF0.29234290981292727
aF0.09645978665351868
aF0.25907393455505373
aF-0.041652955532073974
aF-0.09627185845375061
aF-0.011029172718524933
aF0.09036768388748169
aF-0.032128971576690674
aF-0.0517489150762558
aF-0.016759491324424745
aF-0.005638270497322083
aF0.03501143538951874
aF-0.12547225701808928
aF0.050828839778900146
aF0.007386251211166382
aF0.10494704508781433
aF0.06768185102939606
aF0.00906142184138298
aF0.021545435786247253
aF0.17814220798015595
aF-0.020904471874237062
aF-0.08455829691886901
aF-0.017723698496818544
aF-0.12067410880327224
aF-0.00935248589515686
aF-0.04214918971061707
aF0.033019072651863095
aF-0.08389068937301636
aF-0.020244302749633788
aF-0.04618926095962524
aF0.06402067947387695
aF0.017930832475423812
aF-0.08977252781391144
aF0.022952790141105652
aF0.021564744412899017
aF0.17745615184307098
aF-0.04760037899017334
aF0.025858317375183106
aF0.017168166041374208
aF-0.04539392864704132
aF0.10313119035959244
aF0.0335309511423111
aF-0.09948200714588165
aF0.07613836193084716
aF-0.11492031511664391
aF-0.12284167224168778
aF-0.117525536775589
aF-0.06832970309257508
aF0.07236114084720612
aF0.04026032888889313
aF-0.16408395326137543
aF0.010224965572357178
aF0.16481887149810792
aF0.039779567062854765
aF0.10159131526947021
aF0.07465186727046967
aF0.2164650868177414
aF0.27743398380279544
aF-0.022614032745361327
aF-0.017306366086006164
aF-0.03505091834068298
aF0.07794327747821808
aF-0.061624549269676206
aF-0.0021282316446304323
aF-0.03039997398853302
aF0.13218035590648652
aF0.17285011148452759
aF0.030132059931755065
aF0.19661698561906815
aF-0.014413045048713683
aF-0.09422990489006043
aF-0.052086877703666684
aF0.33108628940582274
aF-0.0021043943166732786
aF-0.0594836146235466
aF0.1937094486951828
aF-0.19290922462940216
aF-0.1205710620880127
aF0.006560115694999695
aF-0.1737808713912964
aF0.04441628396511078
aF0.16855220460891723
aF-0.12398873174190521
aF0.21457904171943665
aF0.029918348789215087
aF0.1766921478509903
aF0.24201358675956727
aF-0.06882272028923035
aF-0.005034386515617371
aF-0.053473204374313354
aF-0.20734708189964293
aF0.19447499752044678
aF0.07781072628498077
aF0.24084987604618072
aF0.017079988300800323
aF0.2962669125795364
aF0.05216123217344284
aF0.057755208373069765
aF-0.00013467764854431153
aF0.008657024264335633
aF-0.07151348829269409
aF0.18749402010440827
aF0.002969696521759033
aF-0.04105880093574524
aF0.00874350917339325
aF0.0912604660987854
aF-0.02342838263511658
aF0.11751177954673767
aF0.18936661219596862
aF0.06914715081453324
aF0.16115394032001495
aF0.06355124521255494
aF0.034761393785476685
aF0.10479536336660385
aF-0.00299453604221344
aF0.24912269914150237
aF0.3245623741745949
aF0.15267789804935455
aF0.1407096325159073
aF0.1135664894580841
aF0.3460422738194466
aF0.015044555604457855
aF0.16079615694284438
aF0.13223077249526977
aF0.053412343204021454
aF0.19099894845485688
aF0.18145640921592712
aF0.14821554934978484
aF0.23559210515022277
aF0.33793661534786223
aF0.12349485331773757
aF0.020654836535453795
aF0.11195678174495698
aF0.2687211176156998
aF0.061224445819854735
aF0.03253970813751221
aF0.29143146812915804
aF0.1699116418361664
aF0.4409864773750305
aF0.3176144517660141
aF0.2557690085172653
aF0.26634098482131957
aF0.4415708508491516
aF-0.0793885850906372
aF0.2302635083794594
aF0.17294907212257385
aF0.3943220286369324
aF0.31830237245559695
aF0.5108698222637177
aF0.2658144745826721
aF0.3409366310834885
aF0.29607274651527404
aF0.39855415391921994
aF0.06868451344966889
aF0.43585194754600526
aF0.23884964859485627
aF0.20847695279121398
aF0.32593563628196714
aF0.3477467164993286
aF0.2555800985097885
aF0.27614501667022706
aF0.3422152568101883
aF0.23111108712852002
aF0.2651340177059174
aF0.3732343090772629
aF0.33039627039432523
aF0.10912330722808838
aF0.33616897082328795
aF0.4922770776748657
aF0.3828681585788727
aF0.168001698076725
aF0.3030369230508804
aF0.22497574114799498
aF0.41112907814979555
aF0.5517312910556793
aF0.3875334729552269
aF0.4052659171819687
aF0.42421714556217194
aF0.5405148153305054
aF0.20659814739227295
aF0.49032007455825805
aF0.3531059201955795
aF0.4237168679237366
aF0.30889046186208724
aF0.4140820727348328
aF0.2973709729909897
aF0.4123005257844925
aF0.5411495388150215
aF0.3535062652826309
aF0.1227797371149063
aF0.28040436494350435
aF0.4896330669522285
aF0.4385673480033874
aF0.40790609455108645
aF0.23992497825622558
aF0.33811463367938993
aF0.250622185587883
aF0.3611760153770447
aF0.38125126612186433
aF0.3375305736064911
aF0.4733373461961746
aF0.5581872837543488
aF0.3474608926773071
aF0.28254657351970675
aF0.40216466736793516
aF0.37764213514328004
aF0.7122117777466774
aF0.4651784303188324
aF0.3727726080417633
aF0.37274055540561674
aF0.4072461665868759
aF0.3972575161457062
aF0.1150834344625473
aF0.5205630254745484
aF0.24639022529125212
aF0.37655756413936614
aF0.34473171496391297
aF0.36013645178079606
aF0.49814970552921295
aF0.4952354206442833
aF0.45111796116828917
aF0.571281576871872
aF0.4346262099742889
aF0.29918293130397794
aF0.37979611587524414
aF0.4591641302108765
aF0.3714266686439514
aF0.343489452958107
aF0.28919650661945345
aF0.6107793383598328
aF0.4383497624397278
aF0.3619683691263199
aF0.25565348839759827
aF0.39593405109643937
aF0.446767134308815
aF0.5086646744012833
aF0.5380205976963043
aF0.38128543078899385
aF0.3321657279729843
aF0.43692788362503054
aF0.3881726130247116
aF0.36212735533714296
aF0.5112091354131698
aF0.29585493755340575
aF0.4629885953068733
aF0.4054122371673584
aF0.48345075714588165
aF0.39074521577358245
aF0.48886787724494934
aF0.4088762992620468
aF0.3892666860818863
aF0.4955344750881195
aF0.4247137291431427
aF0.5485416778326034
aF0.5101855883598327
aF0.370823823928833
aF0.512721212387085
aF0.558533684372902
aF0.34531630313396455
aF0.5370581899881363
aF0.39154606676101683
aF0.5034682456254959
aF0.4021531391143799
aF0.3132556080818176
aF0.6516658947467804
aF0.4927616780996323
aF0.5610353895425797
aF0.45443710339069365
aF0.47314644157886504
aF0.4380888031721115
aF0.5796711224317551
aF0.3734202018380165
aF0.5162847107052803
aF0.4633090355396271
aF0.5405955002307892
aF0.4550044149160385
aF0.4423902131319046
aF0.4589612226486206
aF0.5520184247493743
aF0.5274740639925003
aF0.611314821600914
aF0.367193653345108
aF0.46336886477470396
aF0.6965258973836899
aF0.4937689310312271
aF0.40005242204666136
aF0.24136544036865235
aF0.3496023429632187
aF0.505522407412529
aF0.7302621550559998
aF0.5322304431200028
aF0.367113898396492
aF0.5621244159936905
aF0.6407449513673782
aF0.5838556563854218
aF0.5436325743198395
aF0.3592594894170761
aF0.5454716713428497
aF0.5068627213239669
aF0.5089574453830719
aF0.5257584142684937
aF0.6289056248664856
aF0.44480836403369906
aF0.5550825707912445
aF0.6355432032346725
aF0.5778237359523773
aF0.3942789898812771
aF0.4862016058266163
aF0.4957963707447052
aF0.5050602989196777
aF0.4444752157926559
aF0.5103243722915649
aF0.7107728936672211
aF0.6307945960760116
aF0.39247325420379636
aF0.3637639422416687
aF0.5225412745475769
aF0.4194940028190613
aF0.635345461845398
aF0.6052586489915848
aF0.5889035170078277
aF0.5110604447126389
aF0.5369288063049317
aF0.6664310807585716
aF0.4771989176273346
aF0.6606226437091828
aF0.44807373237609865
aF0.5484930529594422
aF0.5148162482976913
aF0.4997363154888153
aF0.5483923887014389
aF0.4915447747707367
aF0.5388765214681626
aF0.4556929672956467
aF0.5578351349830627
aF0.40803951752185824
aF0.6763422790765762
aF0.7943294227123261
aF0.3837015520334244
aF0.5319275135993957
aF0.506805242061615
aF0.47645356315374376
aF0.41422348499298095
aF0.4190397207736969
aF0.41654359686374665
aF0.6006992995738983
aF0.4896526284217834
aF0.58975450694561
aF0.5183166086673736
aF0.4964248570203781
aF0.5746238925457001
aF0.8324117550849914
aF0.6479783135652543
aF0.4235981276035309
aF0.5232963854074478
aF0.3880224264860153
aF0.6502694954276085
aF0.6586531287431717
aF0.6446889343261719
aF0.3456255497932434
aF0.695167096734047
aF0.5829984631538391
aF0.6070522347688675
aF0.6376081429719925
aF0.6596195199489594
aF0.514435442507267
aF0.561362277686596
aF0.5452996941804886
aF0.5148959356546402
aF0.47863559901714325
aF0.5573578426837921
aF0.6995713458061218
aF0.46111611104011535
aF0.5688190728425979
aF0.5987612926959991
aF0.47944044065475466
aF0.39659679602086545
aF0.7435456085205078
aF0.555834863960743
aF0.5536553848981858
aF0.5923981283903121
aF0.4654180880784988
aF0.656257821559906
aF0.6303695602416992
aF0.5258014870882034
aF0.557192044377327
aF0.7016284444332123
aF0.6571321259737015
aF0.542457044005394
aF0.6360872759819031
aF0.7122827817201615
aF0.40223146104812624
aF0.612978278875351
aF0.5330314471721649
aF0.6128102016448974
aF0.43801031851768496
aF0.5701529469490051
aF0.7325498306751251
aF0.4902351680994034
aF0.5999197273254394
aF0.6260884178876877
aF0.4124233816862106
aF0.6495664242208004
aF0.5545430204868317
aF0.5396752009391784
aF0.7375200612545013
aF0.5433980937004089
aF0.4528176828622818
aF0.7790268096923828
aF0.7767140325307846
aF0.7788563851118088
aF0.6175517233014107
aF0.5925311765670777
aF0.7921173150539398
aF0.7008853458166122
aF0.7227524095773696
aF0.6582252907752991
aF0.6384016082286835
aF0.5856462972164154
aF0.6150094408988953
aF0.659780620098114
aF0.6653184456825256
aF0.43962099027633667
aF0.6863093156814575
aF0.7154969866275788
aF0.7085027905702591
aF0.6618551160097123
aF0.6997326897978783
aF0.6580036051273346
aF0.5929985460042954
aF0.6845454553365707
aF0.6715422945022583
aF0.4377228142619133
aF0.6612905644178391
aF0.6263881529569626
aF0.8170174198150635
aF0.7822376766204834
aF0.6876189026832581
aF0.6844119434356689
aF0.6103549773693084
aF0.6457582685947418
aF0.6399755518436432
aF0.4885983241796494
aF0.5922333714962006
aF0.7917203636169433
aF0.5278646945953369
aF0.7341148631572724
aF0.6834252293109894
aF0.5540619222521782
aF0.7509439705610276
aF0.57295930403471
aF0.6319888319969177
aF0.756663868188858
aF0.6298799032568931
aF0.6435048569440842
aF0.532181033372879
aF0.5750902036428451
aF0.7679070419073105
aF0.8150697646141052
aF0.5892370657920838
aF0.6340570389032364
aF0.611805590391159
aF0.5171150679588318
aF0.5435164445042611
aF0.6388293968439103
aF0.6544751950502395
aF0.6699991763830185
aF0.5388055789470673
aF0.7117726143598556
aF0.6729944474697113
aF0.6050281326770782
aF0.5992679452896118
aF0.6378716320991517
aF0.7714703463315964
aF0.5663003367185593
aF0.6819041467905045
aF0.750817540884018
aF0.5285871012210845
aF0.836679394185543
aF0.6280353932380677
aF0.4292513868808746
aF0.725058908700943
aF0.5548383266925812
aF0.6081300404071808
aF0.7302393141388893
aF0.5564416345357895
aF0.6389803302288055
aF0.7001531940698623
aF0.5841264979839325
aF0.6653416850566864
aF0.4319349921941757
aF0.7266110446453095
aF0.6137932320833206
aF0.5928122223615646
aF0.5795782876014709
aF0.5114329936504364
aF0.6865812549591065
aF0.596241268157959
aF0.584463274359703
aF0.6052827372550964
aF0.6605739334821701
aF0.6351658844947815
aF0.6305835112929344
aF0.7124353746175766
aF0.47961654102802276
aF0.5640662256479263
aF0.46482140719890597
aF0.7332106349468231
aF0.7379005001783371
aF0.7354296365976334
aF0.7112494072914124
aF0.6525095310211182
aF0.7665511646270752
aF0.6543317550420761
aF0.6173065274953842
aF0.5622837229967117
aF0.6833839807510376
aF0.5796332848072052
aF0.7857550375461578
aF0.8192011442184448
aF0.4476952399611473
aF0.6933296236991883
aF0.823764927983284
aF0.557746679186821
aF0.8145535821914673
aF0.5830860533714295
aF0.6256387712955475
aF0.6142165598869324
aF0.7366275604963303
aF0.7516653666496277
aF0.7711716837882996
aF0.665942592382431
aF0.893024833202362
aF0.7535336614847183
aF0.7103576209545136
aF0.6976229969263077
aF0.6118467341661453
aF0.6384961807727814
aF0.5368716733455658
aF0.7624830417633056
aF0.6527300443053246
aF0.7117886276245117
aF0.7459674680233002
aF0.7465975136756897
aF0.6519429329037666
aF0.3855402319431305
aF0.7591132174730301
aF0.6270262831449509
aF0.62219622194767
aF0.5701606901884079
aF0.4761098293066025
aF0.6500188276767731
aF0.5824673545360565
aF0.6638721354007721
aF0.6439056307077408
aF0.49008154654502867
aF0.5435079435110092
aF0.5890653660297394
aF0.6033209478855133
aF0.6208011283874512
aF0.7837405667304993
aF0.730549153804779
aF0.6988335688114167
aF0.5424495843648911
aF0.3713451235294342
aF0.5242767729759217
aF0.6337662789821624
aF0.6326705185174942
aF0.769470193862915
aF0.6685917510390281
aF0.5438723139762879
aF0.6287720668017864
aF0.6682801085710526
aF0.6867576739788055
aF0.7263923367261886
aF0.6958607196807861
aF0.7346426694393158
aF0.6141278955936432
aF0.6273347265720367
aF0.6724481390714645
aF0.7373489847183228
aF0.833943745970726
aF0.773130811214447
aF0.6213766102790832
aF0.6444633932113647
aF0.48302441656589507
aF0.5431664359569549
aF0.8048976258039474
aF0.6930052831172943
aF0.6682169353961944
aF0.6314803681373596
aF0.7207056041955948
aF0.6889548499584198
aF0.5662498111724854
aF0.5416835337877274
aF0.5683606767654419
aF0.7309671540260315
aF0.6614654039144516
aF0.6411587591171265
aF0.6605217024087906
aF0.6929244902133942
aF0.8152301859855652
aF0.6724208402633667
aF0.6653163422346116
aF0.7366562294960022
aF0.8034979641437531
aF0.6349691817760468
aF0.5612138135433197
aF0.762731297492981
aF0.679043961763382
aF0.7221720430850983
aF0.5392767533063888
aF0.738363517999649
aF0.7275959061384201
aF0.5923030022382736
aF0.6541851037740707
aF0.7086377464532853
aF0.6436021683216095
aF0.74668621468544
aF0.6771536554396153
aF0.6948283948898315
aF0.8441264944076539
aF0.5804243776798248
aF0.6826473257541656
aF0.5687624162435532
aF0.6333105692267418
aF0.6107208144664764
aF0.7260952297449111
aF0.6999204306602478
aF0.5025827400684356
aF0.9047870151996612
aF0.6208031772375107
aF0.7254842534065247
aF0.6935911681056023
aF0.49927764451503753
aF0.8206906460523605
aF0.7109387493133545
aF0.6205929771661759
aF0.5837432943582535
aF0.6586530252695083
aF0.8275313093662262
aF0.5796414499282837
aF0.6009043552875519
aF0.7824726297855377
aF0.6996653292775155
aF0.5523785235881805
aF0.7929642583131791
aF0.5302848491668701
aF0.6952050460577011
aF0.5920798583030701
aF0.6825277391672134
aF0.7200077403783798
aF0.7187920145988465
aF0.6757064518928528
aF0.7826396849155426
aF0.6472609648704529
aF0.6890497424602509
aF0.8356100461483001
aF0.700924637556076
aF0.7345515639185906
aF0.9046111500263214
aF0.7564608583450317
aF0.7465488693714142
aF0.7519404814243317
aF0.7799103956222534
aF0.7937342838048935
aF0.6508801023960114
aF0.6196726291179657
aF0.6774967814683914
aF0.7774191143512725
aF0.7014003717899322
aF0.8541891835331917
aF0.7143037316799163
aF0.8027851433753967
aF0.5816113888025284
aF0.5684150998592377
aF0.8187229722738266
aF0.8654336389303208
aF0.8381794247627258
aF0.7026537394523621
aF0.6855130455493927
aF0.5942192085981369
aF0.7017359406948089
aF0.7585382150411606
aF0.9689608172178269
aF0.8076997015476227
aF0.6323708649873734
aF0.7317477490901947
aF0.8162816207408905
aF0.6068024483919143
aF0.7448198156356811
aF0.6943923387527465
aF0.7022107260227204
aF0.7820909786224365
aF0.6966393991708756
aF0.8942621188163757
aF0.859856503367424
aF0.9193993418216705
aF0.6904840595722198
aF0.8012165521383285
aF0.6649398906230927
aF0.596358896970749
aF0.7933152819275856
aF0.8179779398441315
aF0.8386340280771255
aF0.9609422888755799
aF0.7455999420881272
aF0.6698849136829377
aF0.6463346294164658
aF0.8519369521141053
aF0.5880629651546478
aF0.6748407549858093
aF0.5657463178634644
aF0.8341927795410157
aF0.708231932401657
aF0.8640828058719635
aF0.8239126508235931
aF0.8045974950790405
aF0.6573187761306762
aF0.4895113170146942
aF0.7884889469146729
aF0.7069662591218948
aF0.7454556695222855
aF0.6957205876111984
aF0.7292468996047974
aF0.6125156008005143
aF0.7667315902709961
aF0.7237545170783997
aF0.7366421957015992
aF0.720442252755165
aF0.8001065615415573
aF0.633051408290863
aF0.6599965348243714
aF0.6031490617990494
aF0.7424124710559845
aF0.7887646899223327
aF0.7558654631376267
aF0.734502515912056
aF0.650979127407074
aF0.7503155384063721
aF0.5633237075805664
aF0.677854149222374
aF0.5982737293243409
aF0.7044723901748657
aF0.7787942324876785
aF0.4572125768661499
aF0.629317870259285
aF0.8052968471050262
aF0.7209223902225494
aF0.7460125656127929
aF0.621290704369545
aF0.6020318307876587
aF0.6921581529378891
aF0.7363081357479095
aF0.5803360658884048
aF0.7589659725427628
aF0.8108704892396927
aF0.6522359906435012
aF0.7041857492923737
aF0.6520992307662964
aF0.7983161389827729
aF0.7280688834190369
aF0.677947936296463
aF0.8248247327804565
aF0.6171841735839844
aF0.7728363643884659
aF0.796269018292427
aF0.6931058101058006
aF0.8010795568227768
aF0.7291685061454773
aF0.5992385662794113
aF0.6182870585918426
aF0.7421454210281372
aF0.5891145272254944
aF0.7117467393875122
aF0.6448853893280029
aF0.6092997217178344
aF0.8043142440319061
aF0.5895825328826905
aF0.8018224611282349
aF0.6146761091947556
aF0.7337862323522568
aF0.6988133592605591
aF0.7073548216819763
aF0.7531063969135284
aF0.776250921368599
aF0.4041517381668091
aF0.7796832650899888
aF0.7553326430320739
aF0.7494224464893341
aF0.6047948276996613
aF0.6981821690797806
aF0.7732005584239959
aF0.7395921269655228
aF0.6816467587947845
aF0.7423463348150253
aF0.7176801226139069
aF0.6272667922973633
aF0.36921947395801546
aF0.6825156967639923
aF0.7263908922672272
aF0.723281133890152
aF0.8062254055738449
aF0.7510663199424744
aF0.8451916401386261
aF0.8291252359151841
aF0.6856967911720276
aF0.5899815518856049
aF0.7374659512042999
aF0.6814622408151627
aF0.7844072160720825
aF0.6445510973930358
aF0.7714470520019531
aF0.6694004253149033
aF0.6143315427303314
aF0.7825252157449722
aF0.6814398264884949
aF0.7358946371078491
aF0.6432756552696228
aF0.6476209658384323
aF0.7984944338798523
aF0.7139058479070663
aF0.7756642298698425
aF0.8154144873619079
a.