(dp0
Vbellow
p1
I1
sVjust
p2
I19
sVdirecly
p3
I3
sVover
p4
I5
sVmove
p5
I6
sVyellow
p6
I8
sVending
p7
I9
sVfour
p8
I10
sVspaces
p9
I11
sVgo
p10
I12
sVcorner
p11
I13
sVdiagonally
p12
I14
sVfind
p13
I15
sVrow
p14
I16
sV1
p15
I195
sVbut
p16
I213
sVgold
p17
I2
sVnorthern
p18
I20
sVlocated
p19
I196
sV,
p20
I22
sVto
p21
I24
sVrightmost
p22
I25
sVgoing
p23
I26
sVunderneeth
p24
I27
sVchoose
p25
I7
sVth
p26
I29
sVunder
p27
I30
sVorange
p28
I31
sV8
p29
I32
sVcircle
p30
I33
sVhas
p31
I34
sVspot
p32
I207
sVrectangle
p33
I35
sVbrown
p34
I36
sVtriangle
p35
I37
sVabove
p36
I88
sVget
p37
I39
sVfar
p38
I40
sVboutom
p39
I225
sVkitty
p40
I41
sVtrees
p41
I42
sVunderneath
p42
I43
sVcellto
p43
I44
sVtouching
p44
I45
sVfive
p45
I46
sVhalf
p46
I47
sVnot
p47
I48
sVimmediately
p48
I49
sVstone.
p49
I23
sVgalloping
p50
I51
sVvertically
p51
I52
sVdiagnal
p52
I53
sVrocks
p53
I55
sVheart
p54
I171
sVred
p55
I93
sVteal
p56
I57
sVrock
p57
I58
sVbeneath
p58
I59
sVw/a
p59
I69
sVside
p60
I61
sVlocating
p61
I62
sVteh
p62
I63
sVupper
p63
I64
sVright
p64
I65
sVdirectly
p65
I122
sVhouse
p66
I67
sVtringle
p67
I68
sVsecond
p68
I70
sVare
p69
I71
sVcirlce
p70
I4
sVleft.
p71
I73
sVright..
p72
I74
sVblue
p73
I75
sVhighlighting
p74
I76
sVreahc
p75
I77
sVbottom
p76
I78
sVpurple
p77
I79
sVdiament
p78
I80
sVaway
p79
I81
sVsurrounded
p80
I82
sV4
p81
I83
sVtopmost
p82
I84
sVcell
p83
I85
sV3
p84
I86
sV7
p85
I38
sVbetween
p86
I89
sVnet
p87
I50
sVsquares
p88
I91
sVaquare
p89
I92
sVfilled
p90
I56
sVlocate
p91
I200
sVbe
p92
I95
sVsouthern
p93
I146
sVbottommost
p94
I97
sVdiagonal
p95
I98
sVhouser
p96
I99
sVhouses
p97
I100
sVstep
p98
I101
sVbottom-right
p99
I102
sVstay
p100
I208
sVby
p101
I104
sVbox
p102
I105
sVon
p103
I106
sVstone
p104
I107
sVcolumn
p105
I109
sVwhere
p106
I60
sVobe
p107
I111
sVsurround
p108
I112
sVround
p109
I113
sVstar
p110
I203
sVblock
p111
I114
sVthats
p112
I115
sVthen
p113
I175
sVcontains
p114
I135
sVnearest
p115
I118
sVone
p116
I119
sVdown
p117
I120
sVsquare
p118
I121
sVanother
p119
I66
sVblank
p120
I123
sVhalfway
p121
I124
sVnext
p122
I138
sVbelw
p123
I126
sVselect
p124
I127
sVfarthest
p125
I128
sVbingo
p126
I129
sVhorse
p127
I130
sVrows
p128
I131
sVfrom
p129
I132
sVarea
p130
I133
sVtop
p131
I134
sVthere
p132
I116
sVtriange
p133
I117
sVspots
p134
I137
sV.
p135
I125
sVstart
p136
I139
sV2
p137
I140
sVhea
p138
I87
sV6
p139
I142
sVtrianlge
p140
I143
sVblack
p141
I144
sVright.
p142
I145
sVempty
p143
I147
sVboard
p144
I28
sVhorses
p145
I54
sVdiamond
p146
I150
sVnorth
p147
I151
sVthat
p148
I152
sVclub
p149
I153
sVimmediate
p150
I154
sVuppermost
p151
I155
sVheat
p152
I156
sVline
p153
I157
sVhighest
p154
I158
sVwith
p155
I159
sVhe
p156
I160
sVtarget
p157
I161
sVplaces
p158
I162
sVcells
p159
I163
sVtree
p160
I164
sVup
p161
I165
sVbelow
p162
I166
sVthree
p163
I167
sVgray
p164
I168
sVof
p165
I110
sVcontaing
p166
I148
sVsouthernmost
p167
I169
sVand
p168
I170
sVlowest
p169
I94
sVseven
p170
I172
sVpyramid
p171
I173
sVcricle
p172
I174
sVleftmost
p173
I90
sVis
p174
I176
sVin
p175
I180
sVit
p176
I177
sVmiddle
p177
I178
sVat
p178
I179
sVhome
p179
I72
sVclose
p180
I181
sVupper-left
p181
I182
sVnaer
p182
I183
sVspade
p183
I184
sVsone
p184
I185
sV!
p185
I186
sVcontaining
p186
I187
sVinside
p187
I188
sVgoal
p188
I189
sVno
p189
I190
sVreacch
p190
I191
sVtravel
p191
I192
sVsix
p192
I193
sVsame
p193
I194
sVbeside
p194
I17
sValso
p195
I21
sVother
p196
I197
sV5
p197
I198
sVlow
p198
I141
sVwhich
p199
I199
sVyou
p200
I201
sVhigher
p201
I202
sVblocks
p202
I18
sVdiamong
p203
I149
sVclosest
p204
I204
sVshall
p205
I205
sVobject
p206
I206
sVreach
p207
I96
sVhand
p208
I103
sVmost
p209
I209
sVinbetween
p210
I210
sV4th
p211
I211
sVmoving
p212
I212
sVtwo
p213
I136
sVhorce
p214
I214
sVa
p215
I215
sVlower
p216
I216
sVfor
p217
I217
sVthird
p218
I218
sVread
p219
I219
sVspace
p220
I220
sVlines
p221
I221
sVnear
p222
I222
sVgreen
p223
I223
sVsouth
p224
I224
sVgrid
p225
I108
sVthe
p226
I226
sVleft
p227
I229
sVdot
p228
I228
sVonce
p229
I227
s.